ccopy_reg
_reconstructor
p0
(cdebian_linux.config
ConfigCore
p1
c__builtin__
dict
p2
(dp3
(Vdescription
p4
Vmips64
p5
NV5kc-malta
p6
tp7
(dp8
Vhardware
p9
VMIPS Malta
p10
sVhardware-long
p11
VMIPS Malta boards
p12
ss(Vbase
p13
Vi386
p14
tp15
(dp16
Vfeaturesets
p17
(lp18
Vnone
p19
aVrt
p20
asVcompiler
p21
Vgcc-5
p22
sVkernel-arch
p23
Vx86
p24
ss(Vimage
p25
Varmhf
p26
NVarmmp-lpae
p27
tp28
(dp29
Vconfigs
p30
(lp31
Varmhf/config.armmp
p32
aVarmhf/config.lpae
p33
ass(Vbuild
p34
Vppc64el
p35
tp36
(dp37
Vvdso
p38
I01
sVimage-file
p39
Vvmlinux
p40
ss(Vbase
p41
Vpowerpcspe
p42
Vnone
p43
tp44
(dp45
Vimplicit-flavour
p46
I01
sVflavours
p47
(lp48
Vpowerpcspe
p49
ass(Vimage
p50
g26
NVrpi2
p51
tp52
(dp53
Vconfigs
p54
(lp55
Varmhf/config.rpix
p56
aVarmhf/config.rpi2
p57
ass(Vbuild
p58
Vmips64el
p59
tp60
(dp61
Vimage-file
p62
Vvmlinux
p63
ss(Vbase
p64
g14
Vnone
p65
tp66
(dp67
Vflavours
p68
(lp69
V686
p70
aV686-pae
p71
ass(Vbuild
p72
g26
NVrpi2
p73
tp74
(dp75
Vimage-file
p76
Varch/arm/boot/zImagerpdt
p77
ss(Vdescription
p78
g14
tp79
(dp80
Vpart-long-pae
p81
VThis kernel requires PAE (Physical Address Extension).\u000aThis feature is supported by the Intel Pentium Pro/II/III/4/4M/D, Xeon,\u000aCore and Atom; AMD Geode NX, Athlon (K7), Duron, Opteron, Sempron,\u000aTurion or Phenom; Transmeta Efficeon; VIA C7; and some other processors.
p82
ss(Vbase
p83
Vpowerpc
p84
tp85
(dp86
Vfeaturesets
p87
(lp88
g43
asVkernel-arch
p89
Vpowerpc
p90
ss(Vbuild
p91
g84
tp92
(dp93
Vvdso
p94
I01
sVimage-file
p95
Vvmlinux
p96
ss(g41
Vs390x
p97
g43
tp98
(dp99
g46
I01
sg47
(lp100
Vs390x
p101
ass(Vimage
p102
tp103
(dp104
Vinitramfs-generators
p105
(lp106
Vinitramfs-tools
p107
aVinitramfs-fallback
p108
ass(Vdescription
p109
g35
NVpowerpc64le
p110
tp111
(dp112
Vhardware
p113
VLittle-endian 64-bit PowerPC
p114
ss(Vdescription
p115
g14
g65
V686-pae
p116
tp117
(dp118
Vparts
p119
(lp120
Vxen
p121
ass(Vbuild
p122
g97
NVs390x
p123
tp124
(dp125
Vdebug-info
p126
I01
ss(g41
Vmips
p127
g43
tp128
(dp129
g46
I01
sg47
(lp130
V4kc-malta
p131
aV5kc-malta
p132
aVocteon
p133
ass(Vpackages
p134
tp135
(dp136
Vlibc-dev
p137
I00
ss(Vdescription
p138
g5
NVocteon
p139
tp140
(dp141
Vhardware
p142
VOcteon
p143
sVhardware-long
p144
VCavium Networks Octeon
p145
ss(Vimage
p146
g59
NVloongson-3
p147
tp148
(dp149
Vconfigs
p150
(lp151
Vkernelarch-mips/config.loongson-3
p152
ass(Vimage
p153
Vm68k
p154
tp155
(dp156
Vsuggests
p157
Vvmelilo, fdutils
p158
sVinstall-stem
p159
Vvmlinuz
p160
ss(Vimage
p161
g84
NVpowerpc64
p162
tp163
(dp164
Vconfigs
p165
(lp166
Vkernelarch-powerpc/config-arch-64
p167
aVkernelarch-powerpc/config-arch-64-be
p168
ass(g41
Vsh4
p169
g43
tp170
(dp171
g46
I01
sg47
(lp172
Vsh7751r
p173
aVsh7785lcr
p174
ass(Vimage
p175
Vsparc64
p176
NVsparc64
p177
tp178
(dp179
Vconfigs
p180
(lp181
Vkernelarch-sparc/config-up
p182
ass(Vbase
p183
Vhppa
p184
tp185
(dp186
g87
(lp187
g43
asVkernel-arch
p188
Vparisc
p189
ss(Vimage
p190
Valpha
p191
tp192
(dp193
Vsuggests
p194
Vaboot, fdutils
p195
sVinstall-stem
p196
Vvmlinuz
p197
ss(Vdescription
p198
g26
NVrpi
p199
tp200
(dp201
Vhardware
p202
VRaspberryPI
p203
sVhardware-long
p204
VRaspberry PI
p205
ss(Vbase
p206
g5
tp207
(dp208
g87
(lp209
g43
asVkernel-arch
p210
Vmips
p211
ss(Vimage
p212
g84
tp213
(dp214
Vconfigs
p215
(lp216
sVsuggests
p217
Vmkvmlinuz
p218
sVinstall-stem
p219
Vvmlinux
p220
ss(Vimage
p221
Vmipsel
p222
NVloongson-3
p223
tp224
(dp225
Vconfigs
p226
(lp227
Vkernelarch-mips/config.loongson-3
p228
ass(Vbase
p229
Vor1k
p230
tp231
(dp232
Vfeaturesets
p233
(lp234
sVkernel-arch
p235
Vopenrisc
p236
ss(Vabi
p237
tp238
(dp239
Vabiname
p240
V1
p241
sVignore-changes
p242
(lp243
V__scm_destroy
p244
aV__scm_send
p245
aVscm_detach_fds
p246
aVscm_fp_dup
p247
aVefivar_validate
p248
aVget_thermal_instance
p249
aVinet_csk_reqsk_queue_add
p250
aVtcp_req_err
p251
aVmodule:drivers/gpu/drm/drm_kms_helper
p252
aVmodule:drivers/hv/hv_vmbus
p253
aVmodule:drivers/md/dm-snapshot
p254
aVmodule:drivers/mmc/host/sdhci
p255
aVmodule:drivers/mmc/host/sdhci*
p256
aVmodule:net/ceph/libceph
p257
ass(Vbase
p258
g222
tp259
(dp260
g87
(lp261
g43
asVkernel-arch
p262
Vmips
p263
ss(g41
g191
g43
tp264
(dp265
g46
I01
sg47
(lp266
Valpha-generic
p267
aValpha-smp
p268
ass(Vdescription
p269
Vamd64
p270
NVamd64
p271
tp272
(dp273
Vhardware
p274
V64-bit PCs
p275
sVhardware-long
p276
VPCs with AMD64, Intel 64 or VIA Nano processors
p277
ss(Vimage
p278
g222
NVloongson-2e
p279
tp280
(dp281
Vconfigs
p282
(lp283
Vkernelarch-mips/config.loongson-2e
p284
ass(Vdescription
p285
g270
Vnone
p286
Vamd64
p287
tp288
(dp289
Vparts
p290
(lp291
Vxen
p292
ass(g41
Varmel
p293
g43
tp294
(dp295
g46
I01
sg47
(lp296
Vmarvell
p297
aVversatile
p298
ass(Vdescription
p299
g184
NVparisc64-smp
p300
tp301
(dp302
Vhardware
p303
Vmultiprocessor 64-bit PA-RISC
p304
sVhardware-long
p305
VHP PA-RISC 64-bit SMP systems with support for more than 4 GB RAM
p306
ss(Vrelations
p307
g26
tp308
(dp309
Vheaders%gcc-4.9
p310
Vlinux-compiler-gcc-4.9-arm
p311
ss(Vdescription
p312
g222
NVloongson-3
p313
tp314
(dp315
Vhardware
p316
VLoongson 3A/3B
p317
sVhardware-long
p318
VLoongson 3A or 3B based systems (e.g. from Loongson or Lemote)
p319
ss(Vdescription
p320
g191
NValpha-generic
p321
tp322
(dp323
Vhardware
p324
VAlpha
p325
sVhardware-long
p326
VDEC Alpha systems with extended kernel start address (Wildfire, Titan, Marvel)
p327
ss(Vbuild
p328
g222
tp329
(dp330
Vimage-file
p331
Vvmlinux
p332
ss(Vdescription
p333
g26
NVarmmp
p334
tp335
(dp336
Vhardware
p337
VARMv7 multiplatform compatible SoCs
p338
sVhardware-long
p339
VARMv7 multiplatform kernel. See\u000ahttps://wiki.debian.org/DebianKernel/ARMMP for details of supported\u000aplatforms
p340
ss(Vdescription
p341
g176
NVsparc64
p342
tp343
(dp344
Vhardware
p345
Vuniprocessor 64-bit UltraSPARC
p346
ss(Vbase
p347
g270
g286
tp348
(dp349
Vflavours
p350
(lp351
Vamd64
p352
ass(Vimage
p353
g127
NV5kc-malta
p354
tp355
(dp356
Vconfigs
p357
(lp358
Vkernelarch-mips/config.5kc-malta
p359
ass(Vbase
p360
g42
tp361
(dp362
g87
(lp363
g43
asVkernel-arch
p364
Vpowerpc
p365
ss(Vimage
p366
g35
NVpowerpc64le
p367
tp368
(dp369
Vconfigs
p370
(lp371
Vkernelarch-powerpc/config-arch-64
p372
aVkernelarch-powerpc/config-arch-64-le
p373
ass(Vabi
p374
g97
tp375
(dp376
Vignore-changes
p377
(lp378
Vmodule:arch/s390/kvm/kvm
p379
ass(Vbase
p380
NVrt
p381
tp382
(dp383
Venabled
p384
I01
ss(Vbase
p385
Vsparc
p386
tp387
(dp388
Vfeaturesets
p389
(lp390
sVkernel-arch
p391
Vsparc
p392
ss(Vbuild
p393
g97
tp394
(dp395
Vvdso
p396
I01
sVimage-file
p397
Varch/s390/boot/image
p398
ss(Vdescription
p399
g42
tp400
(dp401
Vhardware
p402
V32-bit PowerPC with SPE (instead of AltiVec) with SMP support
p403
ss(Vbase
p404
g97
tp405
(dp406
g87
(lp407
g43
asVkernel-arch
p408
Vs390
p409
ss(Vbase
p410
g26
tp411
(dp412
g87
(lp413
g43
asVkernel-arch
p414
Varm
p415
ss(Vbuild
p416
g169
tp417
(dp418
Vimage-file
p419
Varch/sh/boot/zImage
p420
ss(Vbase
p421
g59
tp422
(dp423
g87
(lp424
g43
asVkernel-arch
p425
Vmips
p426
ss(Vbuild
p427
Varm64
p428
tp429
(dp430
Vdebug-info
p431
I01
sVvdso
p432
I01
sVimage-file
p433
Varch/arm64/boot/Image
p434
ss(Vimage
p435
g222
NV5kc-malta
p436
tp437
(dp438
Vconfigs
p439
(lp440
Vkernelarch-mips/config.5kc-malta
p441
ass(Vbase
p442
g428
tp443
(dp444
Vfeaturesets
p445
(lp446
Vnone
p447
asVkernel-arch
p448
Varm64
p449
ss(g41
Vppc64
p450
g43
tp451
(dp452
g46
I01
sg47
(lp453
Vpowerpc64
p454
ass(Vbuild
p455
g450
tp456
(dp457
Vvdso
p458
I01
sVimage-file
p459
Vvmlinux
p460
ss(Vimage
p461
g5
NV5kc-malta
p462
tp463
(dp464
Vconfigs
p465
(lp466
Vkernelarch-mips/config.5kc-malta
p467
ass(Vimage
p468
g14
NV686
p469
tp470
(dp471
Vconfigs
p472
(lp473
Vkernelarch-x86/config-arch-32
p474
aVi386/config.686
p475
asVrecommends
p476
Vlibc6-i686
p477
ss(Vabi
p478
g184
tp479
(dp480
Vignore-changes
p481
(lp482
Vdrm_dp_*
p483
ass(Vdescription
p484
g84
NVpowerpc-smp
p485
tp486
(dp487
Vhardware
p488
Vmultiprocessor 32-bit PowerPC
p489
ss(Vdescription
p490
g127
NV4kc-malta
p491
tp492
(dp493
Vhardware
p494
VMIPS Malta
p495
sVhardware-long
p496
VMIPS Malta boards
p497
ss(Vdescription
p498
g26
NVrpi2
p499
tp500
(dp501
Vhardware
p502
VRaspberryPI2
p503
sVhardware-long
p504
VRaspberry PI 2
p505
ss(Vdescription
p506
g293
NVversatile
p507
tp508
(dp509
Vhardware
p510
VVersatile
p511
sVhardware-long
p512
VVersatile systems (PB, AB, Qemu)
p513
ss(Vimage
p514
g169
NVsh7785lcr
p515
tp516
(dp517
Vrecommends
p518
Vu-boot-tools
p519
sVcheck-size
p520
L4194304L
ss(g41
g176
g43
tp521
(dp522
g46
I01
sg47
(lp523
Vsparc64
p524
aVsparc64-smp
p525
ass(Vbuild
p526
g14
tp527
(dp528
Vvdso
p529
I01
sVimage-file
p530
Varch/x86/boot/bzImage
p531
ss(Vdescription
p532
tp533
(dp534
Vpart-long-up
p535
VThis kernel is not suitable for SMP (multi-processor,\u000amulti-core or hyper-threaded) systems.
p536
sVpart-long-xen
p537
VThis kernel also runs on a Xen hypervisor.\u000aIt supports both privileged (dom0) and unprivileged (domU) operation.
p538
ss(Vbase
p539
g35
tp540
(dp541
g87
(lp542
g43
asVkernel-arch
p543
Vpowerpc
p544
ss(Vrelations
p545
g293
tp546
(dp547
Vheaders%gcc-4.9
p548
Vlinux-compiler-gcc-4.9-arm
p549
ss(Vversion
p550
tp551
(dp552
Vabiname
p553
V4.4.0-1
p554
sVabiname_base
p555
V4.4.0
p556
sVsource
p557
V4.4.6-1+rpi14
p558
sVupstream
p559
V4.4
p560
ss(Vrelations
p561
g184
tp562
(dp563
Vgcc-4.9
p564
Vgcc-4.9 <!stage1>, binutils-hppa64 <!stage1>, gcc-4.9-hppa64 <!stage1>
p565
ss(g41
g84
g43
tp566
(dp567
g46
I01
sg47
(lp568
Vpowerpc
p569
aVpowerpc-smp
p570
aVpowerpc64
p571
ass(Vimage
p572
g26
NVrpi
p573
tp574
(dp575
Vconfigs
p576
(lp577
Varmhf/config.rpix
p578
aVarmhf/config.rpi
p579
ass(Vbuild
p580
g191
tp581
(dp582
Vimage-file
p583
Varch/alpha/boot/vmlinux.gz
p584
ss(Vbase
p585
g14
Vrt
p586
tp587
(dp588
Vflavours
p589
(lp590
V686-pae
p591
ass(Vimage
p592
g222
NV4kc-malta
p593
tp594
(dp595
Vconfigs
p596
(lp597
Vkernelarch-mips/config.4kc-malta
p598
ass(Vimage
p599
g84
NVpowerpc-smp
p600
tp601
(dp602
Vconfigs
p603
(lp604
Vpowerpc/config.powerpc
p605
aVpowerpc/config.powerpc-smp
p606
ass(Vimage
p607
g127
NV4kc-malta
p608
tp609
(dp610
Vconfigs
p611
(lp612
Vkernelarch-mips/config.4kc-malta
p613
ass(Vdescription
p614
g154
NVm68k
p615
tp616
(dp617
Vhardware
p618
VMotorola MC68020+ family
p619
ss(Vbuild
p620
g154
tp621
(dp622
Vimage-file
p623
Vvmlinux.gz
p624
ss(Vbuild
p625
g270
tp626
(dp627
Vdebug-info
p628
I01
sVvdso
p629
I01
sVimage-file
p630
Varch/x86/boot/bzImage
p631
ss(Vdescription
p632
g59
NV5kc-malta
p633
tp634
(dp635
Vhardware
p636
VMIPS Malta
p637
sVhardware-long
p638
VMIPS Malta boards
p639
ss(Vbuild
p640
g184
tp641
(dp642
Vimage-file
p643
Vvmlinux
p644
ss(Vbase
p645
g270
tp646
(dp647
Vfeaturesets
p648
(lp649
Vnone
p650
aVrt
p651
asVcompiler
p652
Vgcc-5
p653
sVkernel-arch
p654
Vx86
p655
ss(Vxen
p656
g270
g286
Vamd64
p657
tp658
(dp659
Vflavours
p660
(lp661
Vamd64
p662
ass(Vimage
p663
g428
tp664
(dp665
Vinstall-stem
p666
Vvmlinuz
p667
ss(Vdescription
p668
g59
NVocteon
p669
tp670
(dp671
Vhardware
p672
VOcteon
p673
sVhardware-long
p674
VCavium Networks Octeon
p675
ss(Vimage
p676
g169
tp677
(dp678
Vsuggests
p679
Vfdutils
p680
sVinstall-stem
p681
Vvmlinuz
p682
ss(Vdescription
p683
NVrt
p684
tp685
(dp686
Vpart-short-rt
p687
VPREEMPT_RT
p688
sVparts
p689
(lp690
Vrt
p691
asVpart-long-rt
p692
VThis kernel includes the PREEMPT_RT realtime patch set.
p693
ss(Vimage
p694
g97
tp695
(dp696
Vconfigs
p697
(lp698
sVbootloaders
p699
(lp700
Vs390-tools
p701
asVinstall-stem
p702
Vvmlinuz
p703
ss(g41
g35
g43
tp704
(dp705
g46
I01
sg47
(lp706
Vpowerpc64le
p707
ass(Vimage
p708
g127
tp709
(dp710
Vinstall-stem
p711
Vvmlinux
p712
ss(Vdescription
p713
g222
NVloongson-2e
p714
tp715
(dp716
Vhardware
p717
VLoongson 2E
p718
sVhardware-long
p719
VLemote Loongson 2E systems
p720
ss(Vbase
p721
g191
tp722
(dp723
g87
(lp724
g43
asVkernel-arch
p725
Valpha
p726
ss(Vimage
p727
g293
tp728
(dp729
Vconfigs
p730
(lp731
Vkernelarch-arm/config
p732
aVarmel/config
p733
asVsuggests
p734
Vfdutils
p735
sVinstall-stem
p736
Vvmlinuz
p737
ss(Vimage
p738
g42
tp739
(dp740
Vsuggests
p741
Vmkvmlinuz
p742
sVinstall-stem
p743
Vvmlinux
p744
ss(Vbase
p745
g154
tp746
(dp747
g87
(lp748
g43
asVcompiler
p749
Vgcc-4.8
p750
sVcflags
p751
V-ffreestanding
p752
sVkernel-arch
p753
Vm68k
p754
ss(Vimage
p755
g222
tp756
(dp757
Vinstall-stem
p758
Vvmlinux
p759
ss(Vdescription
p760
g191
NValpha-smp
p761
tp762
(dp763
Vhardware
p764
VAlpha SMP
p765
sVhardware-long
p766
VDEC Alpha SMP systems with extended kernel start address (Wildfire, Titan, Marvel)
p767
ss(Vbuild
p768
g5
tp769
(dp770
Vimage-file
p771
Vvmlinux
p772
ss(Vimage
p773
g428
NVarm64
p774
tp775
(dp776
s(Vbuild
p777
g26
NVrpi
p778
tp779
(dp780
Vimage-file
p781
Varch/arm/boot/zImagerpdt
p782
ss(Vbase
p783
Vx32
p784
tp785
(dp786
Vfeaturesets
p787
(lp788
sVkernel-arch
p789
Vx86
p790
ss(Vrelations
p791
g270
tp792
(dp793
Vheaders%gcc-5
p794
Vlinux-compiler-gcc-5-x86
p795
ss(Vbuild
p796
g42
tp797
(dp798
Vvdso
p799
I01
sVimage-file
p800
Vvmlinux
p801
ss(Vbuild
p802
g293
tp803
(dp804
Vimage-file
p805
Varch/arm/boot/zImage
p806
ss(Vdescription
p807
g176
NVsparc64-smp
p808
tp809
(dp810
Vhardware
p811
Vmultiprocessor 64-bit UltraSPARC
p812
ss(Vdescription
p813
g127
NV5kc-malta
p814
tp815
(dp816
Vhardware
p817
VMIPS Malta (64-bit)
p818
sVhardware-long
p819
VMIPS Malta boards (64-bit)
p820
ss(Vbuild
p821
g127
tp822
(dp823
Vimage-file
p824
Vvmlinux
p825
ss(Vimage
p826
g270
NVamd64
p827
tp828
(dp829
Vconfigs
p830
(lp831
Vkernelarch-x86/config-arch-64
p832
ass(g41
g154
g43
tp833
(dp834
g46
I01
sg47
(lp835
Vm68k
p836
ass(Vimage
p837
g176
NVsparc64-smp
p838
tp839
(dp840
Vconfigs
p841
(lp842
Vkernelarch-sparc/config-smp
p843
ass(Vimage
p844
g59
NVocteon
p845
tp846
(dp847
Vconfigs
p848
(lp849
Vkernelarch-mips/config.octeon
p850
ass(Vbase
p851
g270
Vrt
p852
tp853
(dp854
Vflavours
p855
(lp856
Vamd64
p857
ass(Vimage
p858
g293
NVmarvell
p859
tp860
(dp861
Vcheck-size-with-dtb
p862
I01
sVrecommends
p863
Vu-boot-tools
p864
sVbreaks
p865
Vflash-kernel (<< 3.57~)
p866
sVcheck-size
p867
L2097080L
ss(Vdescription
p868
g97
NVs390x
p869
tp870
(dp871
Vhardware
p872
VIBM zSeries
p873
ss(Vdescription
p874
g169
NVsh7785lcr
p875
tp876
(dp877
Vhardware
p878
Vsh7785lcr
p879
sVhardware-long
p880
VRenesas SH7785 reference board
p881
ss(Vdescription
p882
g222
NVloongson-2f
p883
tp884
(dp885
Vhardware
p886
VLoongson 2F
p887
sVhardware-long
p888
VLemote Loongson 2F systems
p889
ss(Vimage
p890
g184
tp891
(dp892
Vsuggests
p893
Vpalo
p894
sVinstall-stem
p895
Vvmlinux
p896
ss(Vbase
p897
g428
Vnone
p898
tp899
(dp900
Vflavours
p901
(lp902
Varm64
p903
ass(Vimage
p904
g270
tp905
(dp906
Vconfigs
p907
(lp908
sVbootloaders
p909
(lp910
Vgrub-pc
p911
aVgrub-efi
p912
aVextlinux
p913
asVbreaks
p914
Vxserver-xorg-input-vmmouse (<< 1:13.0.99)
p915
sVinstall-stem
p916
Vvmlinuz
p917
ss(Vbase
p918
g293
tp919
(dp920
g87
(lp921
g43
asVkernel-arch
p922
Varm
p923
ss(g41
g222
g43
tp924
(dp925
g46
I01
sg47
(lp926
V4kc-malta
p927
aV5kc-malta
p928
aVloongson-2e
p929
aVloongson-2f
p930
aVloongson-3
p931
ass(Vbase
p932
tp933
(dp934
Vfeaturesets
p935
(lp936
Vnone
p937
aVrt
p938
asVcompiler
p939
Vgcc-4.9
p940
sVarches
p941
(lp942
Valpha
p943
aVamd64
p944
aVarm64
p945
aVarmel
p946
aVarmhf
p947
aVhppa
p948
aVi386
p949
aVm68k
p950
aVmips
p951
aVmipsel
p952
aVmips64
p953
aVmips64el
p954
aVor1k
p955
aVpowerpc
p956
aVpowerpcspe
p957
aVppc64
p958
aVppc64el
p959
aVs390
p960
aVs390x
p961
aVsh4
p962
aVsparc
p963
aVsparc64
p964
aVx32
p965
ass(Vdescription
p966
g450
NVpowerpc64
p967
tp968
(dp969
Vhardware
p970
V64-bit PowerPC
p971
ss(g41
g26
g43
tp972
(dp973
g46
I01
sg47
(lp974
Vrpi
p975
aVrpi2
p976
ass(Vbase
p977
g127
tp978
(dp979
g87
(lp980
g43
asVkernel-arch
p981
Vmips
p982
ss(Vdescription
p983
g428
NVarm64
p984
tp985
(dp986
Vhardware
p987
V64-bit ARMv8 machines
p988
ss(Vdescription
p989
g14
NV686-pae
p990
tp991
(dp992
Vhardware
p993
Vmodern PCs
p994
sVparts
p995
(lp996
Vpae
p997
asVhardware-long
p998
VPCs with one or more processors supporting PAE
p999
ss(Vdescription
p1000
g169
NVsh7751r
p1001
tp1002
(dp1003
Vhardware
p1004
Vsh7751r
p1005
sVhardware-long
p1006
VRenesas SH7751R R2D plus board
p1007
ss(Vbuild
p1008
g26
tp1009
(dp1010
Vvdso
p1011
I01
sVimage-file
p1012
Varch/arm/boot/zImage
p1013
ss(Vdescription
p1014
g184
NVparisc
p1015
tp1016
(dp1017
Vhardware
p1018
V32-bit PA-RISC
p1019
sVhardware-long
p1020
VHP PA-RISC 32-bit systems with max 4 GB RAM
p1021
ss(Vdescription
p1022
g59
NVloongson-3
p1023
tp1024
(dp1025
Vhardware
p1026
VLoongson 3A/3B
p1027
sVhardware-long
p1028
VLoongson 3A or 3B based systems (e.g. from Loongson or Lemote)
p1029
ss(Vbase
p1030
g169
tp1031
(dp1032
g87
(lp1033
g43
asVkernel-arch
p1034
Vsh
p1035
ss(g41
g184
g43
tp1036
(dp1037
g46
I01
sg47
(lp1038
Vparisc
p1039
aVparisc64-smp
p1040
ass(Vimage
p1041
g35
tp1042
(dp1043
Vconfigs
p1044
(lp1045
sVsuggests
p1046
Vmkvmlinuz
p1047
sVinstall-stem
p1048
Vvmlinux
p1049
ss(Vbase
p1050
g184
NVparisc64-smp
p1051
tp1052
(dp1053
Voverride-host-type
p1054
Vhppa64-linux-gnu
p1055
sVcflags
p1056
V-fno-cse-follow-jumps
p1057
ss(Vdescription
p1058
g222
NV5kc-malta
p1059
tp1060
(dp1061
Vhardware
p1062
VMIPS Malta (64-bit)
p1063
sVhardware-long
p1064
VMIPS Malta boards (64-bit)
p1065
ss(Vdescription
p1066
g84
NVpowerpc64
p1067
tp1068
(dp1069
Vhardware
p1070
V64-bit PowerPC
p1071
ss(Vimage
p1072
g26
tp1073
(dp1074
Vconfigs
p1075
(lp1076
Vkernelarch-arm/config
p1077
asVsuggests
p1078
Vfdutils
p1079
sVinstall-stem
p1080
Vvmlinuz
p1081
ss(Vrelations
p1082
g97
tp1083
(dp1084
Vheaders%gcc-4.9
p1085
Vlinux-compiler-gcc-4.9-s390
p1086
ss(Vimage
p1087
g14
tp1088
(dp1089
Vconfigs
p1090
(lp1091
sVbootloaders
p1092
(lp1093
Vgrub-pc
p1094
aVextlinux
p1095
asVbreaks
p1096
Vxserver-xorg-input-vmmouse (<< 1:13.0.99)
p1097
sVinstall-stem
p1098
Vvmlinuz
p1099
ss(Vdescription
p1100
g26
NVarmmp-lpae
p1101
tp1102
(dp1103
Vhardware
p1104
VARMv7 multiplatform compatible SoCs supporting LPAE
p1105
sVhardware-long
p1106
VARMv7 multiplatform kernel supporting LPAE. See\u000ahttps://wiki.debian.org/DebianKernel/ARMMP for details of supported\u000aplatforms.
p1107
ss(Vdescription
p1108
g84
NVpowerpc
p1109
tp1110
(dp1111
Vhardware
p1112
Vuniprocessor 32-bit PowerPC
p1113
ss(Vimage
p1114
g176
tp1115
(dp1116
Vconfigs
p1117
(lp1118
sVsuggests
p1119
Vsilo, fdutils
p1120
sVinstall-stem
p1121
Vvmlinuz
p1122
ss(Vimage
p1123
g5
tp1124
(dp1125
Vinstall-stem
p1126
Vvmlinux
p1127
ss(Vimage
p1128
g450
tp1129
(dp1130
Vconfigs
p1131
(lp1132
sVsuggests
p1133
Vmkvmlinuz
p1134
sVinstall-stem
p1135
Vvmlinux
p1136
ss(Vimage
p1137
g59
NV5kc-malta
p1138
tp1139
(dp1140
Vconfigs
p1141
(lp1142
Vkernelarch-mips/config.5kc-malta
p1143
ass(Vdescription
p1144
g222
NV4kc-malta
p1145
tp1146
(dp1147
Vhardware
p1148
VMIPS Malta
p1149
sVhardware-long
p1150
VMIPS Malta boards
p1151
ss(Vimage
p1152
g59
tp1153
(dp1154
Vinstall-stem
p1155
Vvmlinux
p1156
ss(Vbuild
p1157
g14
NV686-pae
p1158
tp1159
(dp1160
Vdebug-info
p1161
I01
ss(Vimage
p1162
g14
NV686-pae
p1163
tp1164
(dp1165
Vconfigs
p1166
(lp1167
Vkernelarch-x86/config-arch-32
p1168
aVi386/config.686-pae
p1169
asVrecommends
p1170
Vlibc6-i686
p1171
ss(Vdescription
p1172
g127
NVocteon
p1173
tp1174
(dp1175
Vhardware
p1176
VOcteon
p1177
sVhardware-long
p1178
VCavium Networks Octeon
p1179
ss(Vrelations
p1180
tp1181
(dp1182
Vinitramfs-fallback
p1183
Vlinux-initramfs-tool
p1184
sVgcc-4.9
p1185
Vgcc-4.9 <!stage1>
p1186
sVgcc-4.8
p1187
Vgcc-4.8 <!stage1>
p1188
sVinitramfs-tools
p1189
Vinitramfs-tools (>= 0.110~)
p1190
sVgcc-5
p1191
Vgcc-5 <!stage1>
p1192
ss(g41
g59
g43
tp1193
(dp1194
g46
I01
sg47
(lp1195
V5kc-malta
p1196
aVloongson-3
p1197
aVocteon
p1198
ass(Vimage
p1199
g222
NVloongson-2f
p1200
tp1201
(dp1202
Vconfigs
p1203
(lp1204
Vkernelarch-mips/config.loongson-2f
p1205
asVrecommends
p1206
Vlibc6-loongson2f
p1207
ss(g41
g5
g43
tp1208
(dp1209
g46
I01
sg47
(lp1210
V5kc-malta
p1211
aVocteon
p1212
ass(Vrelations
p1213
g14
tp1214
(dp1215
Vheaders%gcc-5
p1216
Vlinux-compiler-gcc-5-x86
p1217
ss(Vimage
p1218
g127
NVocteon
p1219
tp1220
(dp1221
Vconfigs
p1222
(lp1223
Vkernelarch-mips/config.octeon
p1224
ass(Vimage
p1225
g450
NVpowerpc64
p1226
tp1227
(dp1228
Vconfigs
p1229
(lp1230
Vkernelarch-powerpc/config-arch-64
p1231
aVkernelarch-powerpc/config-arch-64-be
p1232
ass(Vdescription
p1233
g14
NV686
p1234
tp1235
(dp1236
Vhardware
p1237
Volder PCs
p1238
sVhardware-long
p1239
VPCs with one or more processors not supporting PAE
p1240
ss(Vbuild
p1241
g176
tp1242
(dp1243
Vimage-file
p1244
Varch/sparc/boot/zImage
p1245
ss(Vbase
p1246
Vs390
p1247
tp1248
(dp1249
Vfeaturesets
p1250
(lp1251
sVkernel-arch
p1252
Vs390
p1253
ss(Vabi
p1254
Ng684
tp1255
(dp1256
Vignore-changes
p1257
(lp1258
V*
p1259
ass(Vbase
p1260
g176
tp1261
(dp1262
g87
(lp1263
g43
asVkernel-arch
p1264
Vsparc
p1265
ss(Vimage
p1266
g97
NVs390x
p1267
tp1268
(dp1269
Vconfigs
p1270
(lp1271
Vkernelarch-s390/config-arch-64
p1272
ass(Vimage
p1273
g5
NVocteon
p1274
tp1275
(dp1276
Vconfigs
p1277
(lp1278
Vkernelarch-mips/config.octeon
p1279
ass(Vdescription
p1280
g293
NVmarvell
p1281
tp1282
(dp1283
Vhardware
p1284
VMarvell Kirkwood/Orion
p1285
sVhardware-long
p1286
VMarvell Kirkwood based systems (SheevaPlug, QNAP TS-119/TS-219, etc)\u000aand Orion 5181, 5182 and 5281 based systems (QNAP TS-109/TS-209, etc)
p1287
ss(Vbase
p1288
g450
tp1289
(dp1290
g87
(lp1291
g43
asVkernel-arch
p1292
Vpowerpc
p1293
sstp1294
Rp1295
.