ccopy_reg
_reconstructor
p0
(cdebian_linux.config
ConfigCore
p1
c__builtin__
dict
p2
(dp3
(Vbuild
p4
Varm64
p5
tp6
(dp7
Vvdso
p8
I01
sVimage-file
p9
Varch/arm64/boot/Image
p10
sVdebug-info
p11
I01
ss(Vimage
p12
Vpowerpc
p13
NVpowerpc64
p14
tp15
(dp16
Vconfigs
p17
(lp18
Vkernelarch-powerpc/config-arch-64
p19
aVkernelarch-powerpc/config-arch-64-be
p20
ass(Vbuild
p21
Vpowerpcspe
p22
tp23
(dp24
Vvdso
p25
I01
sVimage-file
p26
Vvmlinux
p27
ss(Vimage
p28
Vmips64el
p29
NV5kc-malta
p30
tp31
(dp32
Vconfigs
p33
(lp34
Vkernelarch-mips/config.5kc-malta
p35
ass(Vbuild
p36
Varmhf
p37
tp38
(dp39
Vvdso
p40
I01
sVimage-file
p41
Varch/arm/boot/zImage
p42
ss(Vdescription
p43
Vmips64
p44
NV5kc-malta
p45
tp46
(dp47
Vhardware-long
p48
VMIPS Malta boards
p49
sVhardware
p50
VMIPS Malta
p51
ss(Vimage
p52
Vamd64
p53
tp54
(dp55
Vinstall-stem
p56
Vvmlinuz
p57
sVconfigs
p58
(lp59
sVbootloaders
p60
(lp61
Vgrub-pc
p62
aVgrub-efi
p63
aVextlinux
p64
asVbreaks
p65
Vxserver-xorg-input-vmmouse (<< 1:13.0.99)
p66
ss(Vimage
p67
Vmipsel
p68
NV4kc-malta
p69
tp70
(dp71
Vconfigs
p72
(lp73
Vkernelarch-mips/config.4kc-malta
p74
ass(Vbuild
p75
Vi386
p76
tp77
(dp78
Vvdso
p79
I01
sVimage-file
p80
Varch/x86/boot/bzImage
p81
ss(Vdescription
p82
g13
NVpowerpc64
p83
tp84
(dp85
Vhardware
p86
V64-bit PowerPC
p87
ss(Vbase
p88
Varmel
p89
Vnone
p90
tp91
(dp92
Vimplicit-flavour
p93
I01
sVflavours
p94
(lp95
Vmarvell
p96
aVversatile
p97
ass(Vbuild
p98
Vppc64
p99
tp100
(dp101
Vvdso
p102
I01
sVimage-file
p103
Vvmlinux
p104
ss(Vrelations
p105
g53
tp106
(dp107
Vheaders%gcc-5
p108
Vlinux-compiler-gcc-5-x86
p109
ss(Vimage
p110
g29
NVocteon
p111
tp112
(dp113
Vconfigs
p114
(lp115
Vkernelarch-mips/config.octeon
p116
ass(Vbuild
p117
Vsh4
p118
tp119
(dp120
Vimage-file
p121
Varch/sh/boot/zImage
p122
ss(Vdescription
p123
Vs390x
p124
NVs390x
p125
tp126
(dp127
Vhardware
p128
VIBM zSeries
p129
ss(g88
g124
g90
tp130
(dp131
g93
I01
sg94
(lp132
Vs390x
p133
ass(Vdescription
p134
Vm68k
p135
NVm68k
p136
tp137
(dp138
Vhardware
p139
VMotorola MC68020+ family
p140
ss(Vbuild
p141
g76
NV686-pae
p142
tp143
(dp144
Vdebug-info
p145
I01
ss(Vimage
p146
g53
NVamd64
p147
tp148
(dp149
Vconfigs
p150
(lp151
Vkernelarch-x86/config-arch-64
p152
ass(Vimage
p153
Vhppa
p154
tp155
(dp156
Vinstall-stem
p157
Vvmlinux
p158
sVsuggests
p159
Vpalo
p160
ss(Vdescription
p161
g76
Vnone
p162
V686-pae
p163
tp164
(dp165
Vparts
p166
(lp167
Vxen
p168
ass(Vbase
p169
Vor1k
p170
tp171
(dp172
Vkernel-arch
p173
Vopenrisc
p174
sVfeaturesets
p175
(lp176
ss(Vimage
p177
g13
NVpowerpc-smp
p178
tp179
(dp180
Vconfigs
p181
(lp182
Vpowerpc/config.powerpc
p183
aVpowerpc/config.powerpc-smp
p184
ass(Vdescription
p185
g68
NVloongson-3
p186
tp187
(dp188
Vhardware-long
p189
VLoongson 3A or 3B based systems (e.g. from Loongson or Lemote)
p190
sVhardware
p191
VLoongson 3A/3B
p192
ss(Vabi
p193
tp194
(dp195
Vignore-changes
p196
(lp197
V__scm_destroy
p198
aV__scm_send
p199
aVscm_detach_fds
p200
aVscm_fp_dup
p201
aVefivar_validate
p202
aVget_thermal_instance
p203
aVinet_csk_reqsk_queue_add
p204
aVtcp_req_err
p205
aVmodule:drivers/gpu/drm/drm_kms_helper
p206
aVmodule:drivers/hv/hv_vmbus
p207
aVmodule:drivers/md/dm-snapshot
p208
aVmodule:drivers/mmc/host/sdhci
p209
aVmodule:drivers/mmc/host/sdhci*
p210
aVmodule:net/ceph/libceph
p211
asVabiname
p212
V1
p213
ss(Vrelations
p214
g154
tp215
(dp216
Vgcc-4.9
p217
Vgcc-4.9 <!stage1>, binutils-hppa64 <!stage1>, gcc-4.9-hppa64 <!stage1>
p218
ss(Vimage
p219
Vsparc64
p220
tp221
(dp222
Vinstall-stem
p223
Vvmlinuz
p224
sVsuggests
p225
Vsilo, fdutils
p226
sVconfigs
p227
(lp228
ss(Vdescription
p229
g37
NVarmmp-lpae
p230
tp231
(dp232
Vhardware-long
p233
VARMv7 multiplatform kernel supporting LPAE. See\u000ahttps://wiki.debian.org/DebianKernel/ARMMP for details of supported\u000aplatforms.
p234
sVhardware
p235
VARMv7 multiplatform compatible SoCs supporting LPAE
p236
ss(Vimage
p237
g89
NVmarvell
p238
tp239
(dp240
Vcheck-size
p241
L2097080L
sVcheck-size-with-dtb
p242
I01
sVrecommends
p243
Vu-boot-tools
p244
sVbreaks
p245
Vflash-kernel (<< 3.57~)
p246
ss(Vdescription
p247
g37
NVrpi2
p248
tp249
(dp250
Vhardware-long
p251
VRaspberry PI 2
p252
sVhardware
p253
VRaspberryPI2
p254
ss(Vimage
p255
g37
NVrpi
p256
tp257
(dp258
Vconfigs
p259
(lp260
Varmhf/config.rpix
p261
aVarmhf/config.test
p262
aVarmhf/config.rpi
p263
ass(g88
g220
g90
tp264
(dp265
g93
I01
sg94
(lp266
Vsparc64
p267
aVsparc64-smp
p268
ass(Vbuild
p269
g29
tp270
(dp271
Vimage-file
p272
Vvmlinux
p273
ss(Vbase
p274
g89
tp275
(dp276
Vkernel-arch
p277
Varm
p278
sVfeaturesets
p279
(lp280
g90
ass(Vabi
p281
g154
tp282
(dp283
Vignore-changes
p284
(lp285
Vdrm_dp_*
p286
ass(Vdescription
p287
g13
NVpowerpc
p288
tp289
(dp290
Vhardware
p291
Vuniprocessor 32-bit PowerPC
p292
ss(Vbase
p293
g220
tp294
(dp295
Vkernel-arch
p296
Vsparc
p297
sg279
(lp298
g90
ass(Vdescription
p299
g68
NVloongson-2e
p300
tp301
(dp302
Vhardware-long
p303
VLemote Loongson 2E systems
p304
sVhardware
p305
VLoongson 2E
p306
ss(g88
Vppc64el
p307
g90
tp308
(dp309
g93
I01
sg94
(lp310
Vpowerpc64le
p311
ass(Vimage
p312
g37
NVarmmp-lpae
p313
tp314
(dp315
Vconfigs
p316
(lp317
Varmhf/config.armmp
p318
aVarmhf/config.lpae
p319
ass(Vdescription
p320
Vmips
p321
NV4kc-malta
p322
tp323
(dp324
Vhardware-long
p325
VMIPS Malta boards
p326
sVhardware
p327
VMIPS Malta
p328
ss(Vbase
p329
g53
Vrt
p330
tp331
(dp332
Vflavours
p333
(lp334
Vamd64
p335
ass(Vdescription
p336
g76
tp337
(dp338
Vpart-long-pae
p339
VThis kernel requires PAE (Physical Address Extension).\u000aThis feature is supported by the Intel Pentium Pro/II/III/4/4M/D, Xeon,\u000aCore and Atom; AMD Geode NX, Athlon (K7), Duron, Opteron, Sempron,\u000aTurion or Phenom; Transmeta Efficeon; VIA C7; and some other processors.
p340
ss(Vbase
p341
g118
tp342
(dp343
Vkernel-arch
p344
Vsh
p345
sg279
(lp346
g90
ass(g88
g13
g90
tp347
(dp348
g93
I01
sg94
(lp349
Vpowerpc
p350
aVpowerpc-smp
p351
aVpowerpc64
p352
ass(Vrelations
p353
g37
tp354
(dp355
Vheaders%gcc-4.9
p356
Vlinux-compiler-gcc-4.9-arm
p357
ss(g88
g321
g90
tp358
(dp359
g93
I01
sg94
(lp360
V4kc-malta
p361
aV5kc-malta
p362
aVocteon
p363
ass(Vimage
p364
g76
NV686
p365
tp366
(dp367
Vrecommends
p368
Vlibc6-i686
p369
sVconfigs
p370
(lp371
Vkernelarch-x86/config-arch-32
p372
aVi386/config.686
p373
ass(Vbase
p374
g307
tp375
(dp376
Vkernel-arch
p377
Vpowerpc
p378
sg279
(lp379
g90
ass(Vdescription
p380
g154
NVparisc
p381
tp382
(dp383
Vhardware-long
p384
VHP PA-RISC 32-bit systems with max 4 GB RAM
p385
sVhardware
p386
V32-bit PA-RISC
p387
ss(g88
g118
g90
tp388
(dp389
g93
I01
sg94
(lp390
Vsh7751r
p391
aVsh7785lcr
p392
ass(Vbase
p393
g37
tp394
(dp395
Vkernel-arch
p396
Varm
p397
sg279
(lp398
g90
ass(Vimage
p399
g68
NVloongson-2e
p400
tp401
(dp402
Vconfigs
p403
(lp404
Vkernelarch-mips/config.loongson-2e
p405
ass(g88
g22
g90
tp406
(dp407
g93
I01
sg94
(lp408
Vpowerpcspe
p409
ass(Vbase
p410
g29
tp411
(dp412
Vkernel-arch
p413
Vmips
p414
sg279
(lp415
g90
ass(Vdescription
p416
g29
NVloongson-3
p417
tp418
(dp419
Vhardware-long
p420
VLoongson 3A or 3B based systems (e.g. from Loongson or Lemote)
p421
sVhardware
p422
VLoongson 3A/3B
p423
ss(Vbase
p424
g321
tp425
(dp426
Vkernel-arch
p427
Vmips
p428
sg279
(lp429
g90
ass(g88
Valpha
p430
g90
tp431
(dp432
g93
I01
sg94
(lp433
Valpha-generic
p434
aValpha-smp
p435
ass(Vbuild
p436
g89
tp437
(dp438
Vimage-file
p439
Varch/arm/boot/zImage
p440
ss(Vimage
p441
g135
tp442
(dp443
Vinstall-stem
p444
Vvmlinuz
p445
sVsuggests
p446
Vvmelilo, fdutils
p447
ss(Vimage
p448
g321
tp449
(dp450
Vinstall-stem
p451
Vvmlinux
p452
ss(Vimage
p453
g124
tp454
(dp455
Vinstall-stem
p456
Vvmlinuz
p457
sVconfigs
p458
(lp459
sVbootloaders
p460
(lp461
Vs390-tools
p462
ass(Vimage
p463
g44
NV5kc-malta
p464
tp465
(dp466
Vconfigs
p467
(lp468
Vkernelarch-mips/config.5kc-malta
p469
ass(Vbase
p470
NVrt
p471
tp472
(dp473
Venabled
p474
I01
ss(Vimage
p475
tp476
(dp477
Vinitramfs-generators
p478
(lp479
Vinitramfs-tools
p480
aVinitramfs-fallback
p481
ass(Vimage
p482
g68
tp483
(dp484
Vinstall-stem
p485
Vvmlinux
p486
ss(g88
g135
g90
tp487
(dp488
g93
I01
sg94
(lp489
Vm68k
p490
ass(Vdescription
p491
tp492
(dp493
Vpart-long-up
p494
VThis kernel is not suitable for SMP (multi-processor,\u000amulti-core or hyper-threaded) systems.
p495
sVpart-long-xen
p496
VThis kernel also runs on a Xen hypervisor.\u000aIt supports both privileged (dom0) and unprivileged (domU) operation.
p497
ss(Vdescription
p498
g53
Vnone
p499
Vamd64
p500
tp501
(dp502
Vparts
p503
(lp504
Vxen
p505
ass(Vdescription
p506
g22
tp507
(dp508
Vhardware
p509
V32-bit PowerPC with SPE (instead of AltiVec) with SMP support
p510
ss(Vimage
p511
g220
NVsparc64-smp
p512
tp513
(dp514
Vconfigs
p515
(lp516
Vkernelarch-sparc/config-smp
p517
ass(Vbase
p518
g430
tp519
(dp520
Vkernel-arch
p521
Valpha
p522
sg279
(lp523
g90
ass(Vdescription
p524
g118
NVsh7785lcr
p525
tp526
(dp527
Vhardware-long
p528
VRenesas SH7785 reference board
p529
sVhardware
p530
Vsh7785lcr
p531
ss(Vimage
p532
g220
NVsparc64
p533
tp534
(dp535
Vconfigs
p536
(lp537
Vkernelarch-sparc/config-up
p538
ass(Vimage
p539
g13
tp540
(dp541
Vinstall-stem
p542
Vvmlinux
p543
sVsuggests
p544
Vmkvmlinuz
p545
sVconfigs
p546
(lp547
ss(Vimage
p548
g68
NV5kc-malta
p549
tp550
(dp551
Vconfigs
p552
(lp553
Vkernelarch-mips/config.5kc-malta
p554
ass(Vbuild
p555
g307
tp556
(dp557
Vvdso
p558
I01
sVimage-file
p559
Vvmlinux
p560
ss(Vimage
p561
g44
tp562
(dp563
Vinstall-stem
p564
Vvmlinux
p565
ss(Vimage
p566
g37
tp567
(dp568
Vinstall-stem
p569
Vvmlinuz
p570
sVsuggests
p571
Vfdutils
p572
sVconfigs
p573
(lp574
Vkernelarch-arm/config
p575
ass(Vdescription
p576
g307
NVpowerpc64le
p577
tp578
(dp579
Vhardware
p580
VLittle-endian 64-bit PowerPC
p581
ss(Vbuild
p582
g53
tp583
(dp584
Vvdso
p585
I01
sVimage-file
p586
Varch/x86/boot/bzImage
p587
sVdebug-info
p588
I01
ss(Vabi
p589
g124
tp590
(dp591
Vignore-changes
p592
(lp593
Vmodule:arch/s390/kvm/kvm
p594
ass(Vbase
p595
Vsparc
p596
tp597
(dp598
Vkernel-arch
p599
Vsparc
p600
sVfeaturesets
p601
(lp602
ss(Vbuild
p603
g430
tp604
(dp605
Vimage-file
p606
Varch/alpha/boot/vmlinux.gz
p607
ss(Vbase
p608
tp609
(dp610
Varches
p611
(lp612
Valpha
p613
aVamd64
p614
aVarm64
p615
aVarmel
p616
aVarmhf
p617
aVhppa
p618
aVi386
p619
aVm68k
p620
aVmips
p621
aVmipsel
p622
aVmips64
p623
aVmips64el
p624
aVor1k
p625
aVpowerpc
p626
aVpowerpcspe
p627
aVppc64
p628
aVppc64el
p629
aVs390
p630
aVs390x
p631
aVsh4
p632
aVsparc
p633
aVsparc64
p634
aVx32
p635
asVcompiler
p636
Vgcc-4.9
p637
sVfeaturesets
p638
(lp639
Vnone
p640
aVrt
p641
ass(Vversion
p642
tp643
(dp644
Vsource
p645
V4.4.6-1+rpi10
p646
sVabiname
p647
V4.4.0-1
p648
sVabiname_base
p649
V4.4.0
p650
sVupstream
p651
V4.4
p652
ss(Vimage
p653
g76
NV686-pae
p654
tp655
(dp656
Vrecommends
p657
Vlibc6-i686
p658
sVconfigs
p659
(lp660
Vkernelarch-x86/config-arch-32
p661
aVi386/config.686-pae
p662
ass(g88
g29
g90
tp663
(dp664
g93
I01
sg94
(lp665
V5kc-malta
p666
aVloongson-3
p667
aVocteon
p668
ass(Vimage
p669
g118
tp670
(dp671
Vinstall-stem
p672
Vvmlinuz
p673
sVsuggests
p674
Vfdutils
p675
ss(Vbase
p676
g68
tp677
(dp678
Vkernel-arch
p679
Vmips
p680
sg279
(lp681
g90
ass(Vimage
p682
g89
tp683
(dp684
Vinstall-stem
p685
Vvmlinuz
p686
sVsuggests
p687
Vfdutils
p688
sVconfigs
p689
(lp690
Vkernelarch-arm/config
p691
aVarmel/config
p692
ass(g88
g99
g90
tp693
(dp694
g93
I01
sg94
(lp695
Vpowerpc64
p696
ass(Vbase
p697
Vx32
p698
tp699
(dp700
Vkernel-arch
p701
Vx86
p702
sVfeaturesets
p703
(lp704
ss(Vbuild
p705
g135
tp706
(dp707
Vimage-file
p708
Vvmlinux.gz
p709
ss(Vimage
p710
g5
tp711
(dp712
Vinstall-stem
p713
Vvmlinuz
p714
ss(Vimage
p715
g37
NVrpi2
p716
tp717
(dp718
Vconfigs
p719
(lp720
Varmhf/config.rpix
p721
aVarmhf/config.rpi2
p722
ass(Vimage
p723
g22
tp724
(dp725
Vinstall-stem
p726
Vvmlinux
p727
sVsuggests
p728
Vmkvmlinuz
p729
ss(Vdescription
p730
g68
NV4kc-malta
p731
tp732
(dp733
Vhardware-long
p734
VMIPS Malta boards
p735
sVhardware
p736
VMIPS Malta
p737
ss(Vdescription
p738
g321
NVocteon
p739
tp740
(dp741
Vhardware-long
p742
VCavium Networks Octeon
p743
sVhardware
p744
VOcteon
p745
ss(Vbase
p746
g13
tp747
(dp748
Vkernel-arch
p749
Vpowerpc
p750
sg279
(lp751
g90
ass(Vbase
p752
g44
tp753
(dp754
Vkernel-arch
p755
Vmips
p756
sg279
(lp757
g90
ass(Vbase
p758
g5
tp759
(dp760
Vkernel-arch
p761
Varm64
p762
sVfeaturesets
p763
(lp764
Vnone
p765
ass(Vdescription
p766
g68
NV5kc-malta
p767
tp768
(dp769
Vhardware-long
p770
VMIPS Malta boards (64-bit)
p771
sVhardware
p772
VMIPS Malta (64-bit)
p773
ss(Vimage
p774
g29
tp775
(dp776
Vinstall-stem
p777
Vvmlinux
p778
ss(Vpackages
p779
tp780
(dp781
Vlibc-dev
p782
I00
ss(Vimage
p783
g76
tp784
(dp785
Vinstall-stem
p786
Vvmlinuz
p787
sVconfigs
p788
(lp789
sVbootloaders
p790
(lp791
Vgrub-pc
p792
aVextlinux
p793
asVbreaks
p794
Vxserver-xorg-input-vmmouse (<< 1:13.0.99)
p795
ss(Vimage
p796
g99
tp797
(dp798
Vinstall-stem
p799
Vvmlinux
p800
sVsuggests
p801
Vmkvmlinuz
p802
sVconfigs
p803
(lp804
ss(Vdescription
p805
g5
NVarm64
p806
tp807
(dp808
Vhardware
p809
V64-bit ARMv8 machines
p810
ss(Vdescription
p811
g430
NValpha-smp
p812
tp813
(dp814
Vhardware-long
p815
VDEC Alpha SMP systems with extended kernel start address (Wildfire, Titan, Marvel)
p816
sVhardware
p817
VAlpha SMP
p818
ss(Vbuild
p819
g37
NVrpi
p820
tp821
(dp822
Vimage-file
p823
Varch/arm/boot/zImagerpdt
p824
ss(Vdescription
p825
g89
NVmarvell
p826
tp827
(dp828
Vhardware-long
p829
VMarvell Kirkwood based systems (SheevaPlug, QNAP TS-119/TS-219, etc)\u000aand Orion 5181, 5182 and 5281 based systems (QNAP TS-109/TS-209, etc)
p830
sVhardware
p831
VMarvell Kirkwood/Orion
p832
ss(Vdescription
p833
NVrt
p834
tp835
(dp836
Vpart-long-rt
p837
VThis kernel includes the PREEMPT_RT realtime patch set.
p838
sVpart-short-rt
p839
VPREEMPT_RT
p840
sVparts
p841
(lp842
Vrt
p843
ass(Vbuild
p844
g154
tp845
(dp846
Vimage-file
p847
Vvmlinux
p848
ss(Vbase
p849
g76
tp850
(dp851
Vkernel-arch
p852
Vx86
p853
sVcompiler
p854
Vgcc-5
p855
sVfeaturesets
p856
(lp857
Vnone
p858
aVrt
p859
ass(Vrelations
p860
g124
tp861
(dp862
Vheaders%gcc-4.9
p863
Vlinux-compiler-gcc-4.9-s390
p864
ss(Vabi
p865
Ng834
tp866
(dp867
Vignore-changes
p868
(lp869
V*
p870
ass(g88
g37
g90
tp871
(dp872
g93
I01
sg94
(lp873
Vrpi
p874
aVrpi2
p875
ass(Vimage
p876
g321
NV4kc-malta
p877
tp878
(dp879
Vconfigs
p880
(lp881
Vkernelarch-mips/config.4kc-malta
p882
ass(Vbase
p883
g53
g499
tp884
(dp885
Vflavours
p886
(lp887
Vamd64
p888
ass(Vbuild
p889
g220
tp890
(dp891
Vimage-file
p892
Varch/sparc/boot/zImage
p893
ss(Vimage
p894
g29
NVloongson-3
p895
tp896
(dp897
Vconfigs
p898
(lp899
Vkernelarch-mips/config.loongson-3
p900
ass(Vimage
p901
g118
NVsh7785lcr
p902
tp903
(dp904
Vcheck-size
p905
L4194304L
sVrecommends
p906
Vu-boot-tools
p907
ss(Vimage
p908
g307
NVpowerpc64le
p909
tp910
(dp911
Vconfigs
p912
(lp913
Vkernelarch-powerpc/config-arch-64
p914
aVkernelarch-powerpc/config-arch-64-le
p915
ass(Vbase
p916
Vs390
p917
tp918
(dp919
Vkernel-arch
p920
Vs390
p921
sVfeaturesets
p922
(lp923
ss(Vimage
p924
g68
NVloongson-2f
p925
tp926
(dp927
Vrecommends
p928
Vlibc6-loongson2f
p929
sVconfigs
p930
(lp931
Vkernelarch-mips/config.loongson-2f
p932
ass(Vrelations
p933
tp934
(dp935
Vgcc-5
p936
Vgcc-5 <!stage1>
p937
sVinitramfs-fallback
p938
Vlinux-initramfs-tool
p939
sVgcc-4.8
p940
Vgcc-4.8 <!stage1>
p941
sVgcc-4.9
p942
Vgcc-4.9 <!stage1>
p943
sVinitramfs-tools
p944
Vinitramfs-tools (>= 0.110~)
p945
ss(Vbase
p946
g154
tp947
(dp948
Vkernel-arch
p949
Vparisc
p950
sg279
(lp951
g90
ass(g88
g44
g90
tp952
(dp953
g93
I01
sg94
(lp954
V5kc-malta
p955
aVocteon
p956
ass(Vdescription
p957
g37
NVrpi
p958
tp959
(dp960
Vhardware-long
p961
VRaspberry PI
p962
sVhardware
p963
VRaspberryPI
p964
ss(Vrelations
p965
g76
tp966
(dp967
Vheaders%gcc-5
p968
Vlinux-compiler-gcc-5-x86
p969
ss(Vimage
p970
g321
NVocteon
p971
tp972
(dp973
Vconfigs
p974
(lp975
Vkernelarch-mips/config.octeon
p976
ass(Vdescription
p977
g53
NVamd64
p978
tp979
(dp980
Vhardware-long
p981
VPCs with AMD64, Intel 64 or VIA Nano processors
p982
sVhardware
p983
V64-bit PCs
p984
ss(Vdescription
p985
g154
NVparisc64-smp
p986
tp987
(dp988
Vhardware-long
p989
VHP PA-RISC 64-bit SMP systems with support for more than 4 GB RAM
p990
sVhardware
p991
Vmultiprocessor 64-bit PA-RISC
p992
ss(Vbuild
p993
g124
NVs390x
p994
tp995
(dp996
Vdebug-info
p997
I01
ss(Vdescription
p998
g430
NValpha-generic
p999
tp1000
(dp1001
Vhardware-long
p1002
VDEC Alpha systems with extended kernel start address (Wildfire, Titan, Marvel)
p1003
sVhardware
p1004
VAlpha
p1005
ss(Vimage
p1006
g124
NVs390x
p1007
tp1008
(dp1009
Vconfigs
p1010
(lp1011
Vkernelarch-s390/config-arch-64
p1012
ass(Vdescription
p1013
g76
NV686-pae
p1014
tp1015
(dp1016
Vhardware-long
p1017
VPCs with one or more processors supporting PAE
p1018
sVparts
p1019
(lp1020
Vpae
p1021
asVhardware
p1022
Vmodern PCs
p1023
ss(Vdescription
p1024
g220
NVsparc64
p1025
tp1026
(dp1027
Vhardware
p1028
Vuniprocessor 64-bit UltraSPARC
p1029
ss(Vdescription
p1030
g118
NVsh7751r
p1031
tp1032
(dp1033
Vhardware-long
p1034
VRenesas SH7751R R2D plus board
p1035
sVhardware
p1036
Vsh7751r
p1037
ss(Vbase
p1038
g22
tp1039
(dp1040
Vkernel-arch
p1041
Vpowerpc
p1042
sg279
(lp1043
g90
ass(Vdescription
p1044
g321
NV5kc-malta
p1045
tp1046
(dp1047
Vhardware-long
p1048
VMIPS Malta boards (64-bit)
p1049
sVhardware
p1050
VMIPS Malta (64-bit)
p1051
ss(Vbuild
p1052
g68
tp1053
(dp1054
Vimage-file
p1055
Vvmlinux
p1056
ss(Vbase
p1057
g135
tp1058
(dp1059
Vcflags
p1060
V-ffreestanding
p1061
sVkernel-arch
p1062
Vm68k
p1063
sVcompiler
p1064
Vgcc-4.8
p1065
sg279
(lp1066
g90
ass(Vrelations
p1067
g89
tp1068
(dp1069
Vheaders%gcc-4.9
p1070
Vlinux-compiler-gcc-4.9-arm
p1071
ss(Vbase
p1072
g76
Vrt
p1073
tp1074
(dp1075
Vflavours
p1076
(lp1077
V686-pae
p1078
ass(g88
g154
g90
tp1079
(dp1080
g93
I01
sg94
(lp1081
Vparisc
p1082
aVparisc64-smp
p1083
ass(Vdescription
p1084
g29
NVocteon
p1085
tp1086
(dp1087
Vhardware-long
p1088
VCavium Networks Octeon
p1089
sVhardware
p1090
VOcteon
p1091
ss(Vdescription
p1092
g44
NVocteon
p1093
tp1094
(dp1095
Vhardware-long
p1096
VCavium Networks Octeon
p1097
sVhardware
p1098
VOcteon
p1099
ss(Vdescription
p1100
g29
NV5kc-malta
p1101
tp1102
(dp1103
Vhardware-long
p1104
VMIPS Malta boards
p1105
sVhardware
p1106
VMIPS Malta
p1107
ss(Vbase
p1108
g53
tp1109
(dp1110
Vkernel-arch
p1111
Vx86
p1112
sVcompiler
p1113
Vgcc-5
p1114
sVfeaturesets
p1115
(lp1116
Vnone
p1117
aVrt
p1118
ass(Vdescription
p1119
g68
NVloongson-2f
p1120
tp1121
(dp1122
Vhardware-long
p1123
VLemote Loongson 2F systems
p1124
sVhardware
p1125
VLoongson 2F
p1126
ss(Vimage
p1127
g307
tp1128
(dp1129
Vinstall-stem
p1130
Vvmlinux
p1131
sVsuggests
p1132
Vmkvmlinuz
p1133
sVconfigs
p1134
(lp1135
ss(Vbuild
p1136
g44
tp1137
(dp1138
Vimage-file
p1139
Vvmlinux
p1140
ss(Vxen
p1141
g53
g499
Vamd64
p1142
tp1143
(dp1144
Vflavours
p1145
(lp1146
Vamd64
p1147
ass(Vimage
p1148
g68
NVloongson-3
p1149
tp1150
(dp1151
Vconfigs
p1152
(lp1153
Vkernelarch-mips/config.loongson-3
p1154
ass(Vbase
p1155
g5
Vnone
p1156
tp1157
(dp1158
Vflavours
p1159
(lp1160
Varm64
p1161
ass(Vdescription
p1162
g99
NVpowerpc64
p1163
tp1164
(dp1165
Vhardware
p1166
V64-bit PowerPC
p1167
ss(Vdescription
p1168
g89
NVversatile
p1169
tp1170
(dp1171
Vhardware-long
p1172
VVersatile systems (PB, AB, Qemu)
p1173
sVhardware
p1174
VVersatile
p1175
ss(Vbuild
p1176
g321
tp1177
(dp1178
Vimage-file
p1179
Vvmlinux
p1180
ss(Vbuild
p1181
g124
tp1182
(dp1183
Vvdso
p1184
I01
sVimage-file
p1185
Varch/s390/boot/image
p1186
ss(Vdescription
p1187
g37
NVarmmp
p1188
tp1189
(dp1190
Vhardware-long
p1191
VARMv7 multiplatform kernel. See\u000ahttps://wiki.debian.org/DebianKernel/ARMMP for details of supported\u000aplatforms
p1192
sVhardware
p1193
VARMv7 multiplatform compatible SoCs
p1194
ss(Vdescription
p1195
g13
NVpowerpc-smp
p1196
tp1197
(dp1198
Vhardware
p1199
Vmultiprocessor 32-bit PowerPC
p1200
ss(Vimage
p1201
g5
NVarm64
p1202
tp1203
(dp1204
s(Vimage
p1205
g321
NV5kc-malta
p1206
tp1207
(dp1208
Vconfigs
p1209
(lp1210
Vkernelarch-mips/config.5kc-malta
p1211
ass(Vbase
p1212
g76
g162
tp1213
(dp1214
Vflavours
p1215
(lp1216
V686
p1217
aV686-pae
p1218
ass(Vdescription
p1219
g220
NVsparc64-smp
p1220
tp1221
(dp1222
Vhardware
p1223
Vmultiprocessor 64-bit UltraSPARC
p1224
ss(Vimage
p1225
g430
tp1226
(dp1227
Vinstall-stem
p1228
Vvmlinuz
p1229
sVsuggests
p1230
Vaboot, fdutils
p1231
ss(Vbase
p1232
g154
NVparisc64-smp
p1233
tp1234
(dp1235
Vcflags
p1236
V-fno-cse-follow-jumps
p1237
sVoverride-host-type
p1238
Vhppa64-linux-gnu
p1239
ss(g88
g68
g90
tp1240
(dp1241
g93
I01
sg94
(lp1242
V4kc-malta
p1243
aV5kc-malta
p1244
aVloongson-2e
p1245
aVloongson-2f
p1246
aVloongson-3
p1247
ass(Vbuild
p1248
g37
NVrpi2
p1249
tp1250
(dp1251
Vimage-file
p1252
Varch/arm/boot/zImagerpdt
p1253
ss(Vdescription
p1254
g76
NV686
p1255
tp1256
(dp1257
Vhardware-long
p1258
VPCs with one or more processors not supporting PAE
p1259
sVhardware
p1260
Volder PCs
p1261
ss(Vbase
p1262
g99
tp1263
(dp1264
Vkernel-arch
p1265
Vpowerpc
p1266
sg279
(lp1267
g90
ass(Vimage
p1268
g44
NVocteon
p1269
tp1270
(dp1271
Vconfigs
p1272
(lp1273
Vkernelarch-mips/config.octeon
p1274
ass(Vbase
p1275
g124
tp1276
(dp1277
Vkernel-arch
p1278
Vs390
p1279
sg279
(lp1280
g90
ass(Vbuild
p1281
g13
tp1282
(dp1283
Vvdso
p1284
I01
sVimage-file
p1285
Vvmlinux
p1286
ss(Vimage
p1287
g99
NVpowerpc64
p1288
tp1289
(dp1290
Vconfigs
p1291
(lp1292
Vkernelarch-powerpc/config-arch-64
p1293
aVkernelarch-powerpc/config-arch-64-be
p1294
asstp1295
Rp1296
.