ccopy_reg
_reconstructor
p0
(cdebian_linux.config
ConfigCore
p1
c__builtin__
dict
p2
(dp3
(Vversion
p4
tp5
(dp6
Vupstream
p7
V4.4
p8
sVabiname
p9
V4.4.0-1
p10
sVabiname_base
p11
V4.4.0
p12
sVsource
p13
V4.4.6-1+rpi13
p14
ss(Vabi
p15
Vs390x
p16
tp17
(dp18
Vignore-changes
p19
(lp20
Vmodule:arch/s390/kvm/kvm
p21
ass(Vdescription
p22
Varmel
p23
NVversatile
p24
tp25
(dp26
Vhardware-long
p27
VVersatile systems (PB, AB, Qemu)
p28
sVhardware
p29
VVersatile
p30
ss(Vbase
p31
Vmipsel
p32
tp33
(dp34
Vkernel-arch
p35
Vmips
p36
sVfeaturesets
p37
(lp38
Vnone
p39
ass(Vimage
p40
Vmips64el
p41
tp42
(dp43
Vinstall-stem
p44
Vvmlinux
p45
ss(Vbase
p46
Vamd64
p47
Vnone
p48
tp49
(dp50
Vflavours
p51
(lp52
Vamd64
p53
ass(Vbuild
p54
g16
tp55
(dp56
Vimage-file
p57
Varch/s390/boot/image
p58
sVvdso
p59
I01
ss(Vimage
p60
Vpowerpc
p61
tp62
(dp63
Vconfigs
p64
(lp65
sVinstall-stem
p66
Vvmlinux
p67
sVsuggests
p68
Vmkvmlinuz
p69
ss(Vbase
p70
Vm68k
p71
tp72
(dp73
Vkernel-arch
p74
Vm68k
p75
sg37
(lp76
g39
asVcompiler
p77
Vgcc-4.8
p78
sVcflags
p79
V-ffreestanding
p80
ss(Vdescription
p81
Varmhf
p82
NVrpi2
p83
tp84
(dp85
Vhardware-long
p86
VRaspberry PI 2
p87
sVhardware
p88
VRaspberryPI2
p89
ss(Vimage
p90
Vsparc64
p91
NVsparc64-smp
p92
tp93
(dp94
Vconfigs
p95
(lp96
Vkernelarch-sparc/config-smp
p97
ass(Vdescription
p98
g32
NVloongson-2f
p99
tp100
(dp101
Vhardware-long
p102
VLemote Loongson 2F systems
p103
sVhardware
p104
VLoongson 2F
p105
ss(Vimage
p106
g82
NVrpi
p107
tp108
(dp109
Vconfigs
p110
(lp111
Varmhf/config.rpix
p112
aVarmhf/config.rpi
p113
ass(Vbuild
p114
g82
tp115
(dp116
Vimage-file
p117
Varch/arm/boot/zImage
p118
sVvdso
p119
I01
ss(Vbase
p120
Vppc64
p121
tp122
(dp123
Vkernel-arch
p124
Vpowerpc
p125
sg37
(lp126
g39
ass(Vbase
p127
g82
g39
tp128
(dp129
Vflavours
p130
(lp131
Vrpi
p132
aVrpi2
p133
asVimplicit-flavour
p134
I01
ss(Vdescription
p135
g32
NVloongson-2e
p136
tp137
(dp138
Vhardware-long
p139
VLemote Loongson 2E systems
p140
sVhardware
p141
VLoongson 2E
p142
ss(Vdescription
p143
g82
NVarmmp
p144
tp145
(dp146
Vhardware-long
p147
VARMv7 multiplatform kernel. See\u000ahttps://wiki.debian.org/DebianKernel/ARMMP for details of supported\u000aplatforms
p148
sVhardware
p149
VARMv7 multiplatform compatible SoCs
p150
ss(Vdescription
p151
g16
NVs390x
p152
tp153
(dp154
Vhardware
p155
VIBM zSeries
p156
ss(Vrelations
p157
g16
tp158
(dp159
Vheaders%gcc-4.9
p160
Vlinux-compiler-gcc-4.9-s390
p161
ss(Vdescription
p162
Vi386
p163
NV686-pae
p164
tp165
(dp166
Vparts
p167
(lp168
Vpae
p169
asVhardware-long
p170
VPCs with one or more processors supporting PAE
p171
sVhardware
p172
Vmodern PCs
p173
ss(Vimage
p174
tp175
(dp176
Vinitramfs-generators
p177
(lp178
Vinitramfs-tools
p179
aVinitramfs-fallback
p180
ass(Vbuild
p181
Vmips64
p182
tp183
(dp184
Vimage-file
p185
Vvmlinux
p186
ss(g127
g91
g39
tp187
(dp188
g130
(lp189
Vsparc64
p190
aVsparc64-smp
p191
asg134
I01
ss(Vbase
p192
Vsparc
p193
tp194
(dp195
Vkernel-arch
p196
Vsparc
p197
sVfeaturesets
p198
(lp199
ss(Vimage
p200
Vmips
p201
NV4kc-malta
p202
tp203
(dp204
Vconfigs
p205
(lp206
Vkernelarch-mips/config.4kc-malta
p207
ass(Vabi
p208
NVrt
p209
tp210
(dp211
Vignore-changes
p212
(lp213
V*
p214
ass(Vimage
p215
Varm64
p216
NVarm64
p217
tp218
(dp219
s(Vbase
p220
g216
Vnone
p221
tp222
(dp223
Vflavours
p224
(lp225
Varm64
p226
ass(Vbase
p227
Valpha
p228
tp229
(dp230
Vkernel-arch
p231
Valpha
p232
sg37
(lp233
g39
ass(Vimage
p234
g23
NVmarvell
p235
tp236
(dp237
Vrecommends
p238
Vu-boot-tools
p239
sVcheck-size
p240
L2097080L
sVbreaks
p241
Vflash-kernel (<< 3.57~)
p242
sVcheck-size-with-dtb
p243
I01
ss(Vbase
p244
g201
tp245
(dp246
Vkernel-arch
p247
Vmips
p248
sg37
(lp249
g39
ass(Vdescription
p250
g61
NVpowerpc64
p251
tp252
(dp253
Vhardware
p254
V64-bit PowerPC
p255
ss(Vimage
p256
g32
NVloongson-2f
p257
tp258
(dp259
Vconfigs
p260
(lp261
Vkernelarch-mips/config.loongson-2f
p262
asVrecommends
p263
Vlibc6-loongson2f
p264
ss(Vbase
p265
tp266
(dp267
Vcompiler
p268
Vgcc-4.9
p269
sVarches
p270
(lp271
Valpha
p272
aVamd64
p273
aVarm64
p274
aVarmel
p275
aVarmhf
p276
aVhppa
p277
aVi386
p278
aVm68k
p279
aVmips
p280
aVmipsel
p281
aVmips64
p282
aVmips64el
p283
aVor1k
p284
aVpowerpc
p285
aVpowerpcspe
p286
aVppc64
p287
aVppc64el
p288
aVs390
p289
aVs390x
p290
aVsh4
p291
aVsparc
p292
aVsparc64
p293
aVx32
p294
asVfeaturesets
p295
(lp296
Vnone
p297
aVrt
p298
ass(Vimage
p299
Vppc64el
p300
NVpowerpc64le
p301
tp302
(dp303
Vconfigs
p304
(lp305
Vkernelarch-powerpc/config-arch-64
p306
aVkernelarch-powerpc/config-arch-64-le
p307
ass(Vbase
p308
Vpowerpcspe
p309
tp310
(dp311
Vkernel-arch
p312
Vpowerpc
p313
sg37
(lp314
g39
ass(Vdescription
p315
g91
NVsparc64-smp
p316
tp317
(dp318
Vhardware
p319
Vmultiprocessor 64-bit UltraSPARC
p320
ss(Vimage
p321
g32
NVloongson-2e
p322
tp323
(dp324
Vconfigs
p325
(lp326
Vkernelarch-mips/config.loongson-2e
p327
ass(Vimage
p328
g201
NVocteon
p329
tp330
(dp331
Vconfigs
p332
(lp333
Vkernelarch-mips/config.octeon
p334
ass(Vbuild
p335
g71
tp336
(dp337
Vimage-file
p338
Vvmlinux.gz
p339
ss(Vbase
p340
g216
tp341
(dp342
Vkernel-arch
p343
Varm64
p344
sVfeaturesets
p345
(lp346
Vnone
p347
ass(Vimage
p348
g163
tp349
(dp350
Vconfigs
p351
(lp352
sVbootloaders
p353
(lp354
Vgrub-pc
p355
aVextlinux
p356
asVbreaks
p357
Vxserver-xorg-input-vmmouse (<< 1:13.0.99)
p358
sVinstall-stem
p359
Vvmlinuz
p360
ss(Vrelations
p361
g47
tp362
(dp363
Vheaders%gcc-5
p364
Vlinux-compiler-gcc-5-x86
p365
ss(Vimage
p366
g163
NV686
p367
tp368
(dp369
Vconfigs
p370
(lp371
Vkernelarch-x86/config-arch-32
p372
aVi386/config.686
p373
asVrecommends
p374
Vlibc6-i686
p375
ss(Vimage
p376
g61
NVpowerpc64
p377
tp378
(dp379
Vconfigs
p380
(lp381
Vkernelarch-powerpc/config-arch-64
p382
aVkernelarch-powerpc/config-arch-64-be
p383
ass(Vimage
p384
g47
NVamd64
p385
tp386
(dp387
Vconfigs
p388
(lp389
Vkernelarch-x86/config-arch-64
p390
ass(Vbase
p391
Vhppa
p392
tp393
(dp394
Vkernel-arch
p395
Vparisc
p396
sg37
(lp397
g39
ass(Vrelations
p398
g23
tp399
(dp400
Vheaders%gcc-4.9
p401
Vlinux-compiler-gcc-4.9-arm
p402
ss(Vdescription
p403
g82
NVarmmp-lpae
p404
tp405
(dp406
Vhardware-long
p407
VARMv7 multiplatform kernel supporting LPAE. See\u000ahttps://wiki.debian.org/DebianKernel/ARMMP for details of supported\u000aplatforms.
p408
sVhardware
p409
VARMv7 multiplatform compatible SoCs supporting LPAE
p410
ss(Vabi
p411
tp412
(dp413
Vabiname
p414
V1
p415
sVignore-changes
p416
(lp417
V__scm_destroy
p418
aV__scm_send
p419
aVscm_detach_fds
p420
aVscm_fp_dup
p421
aVefivar_validate
p422
aVget_thermal_instance
p423
aVinet_csk_reqsk_queue_add
p424
aVtcp_req_err
p425
aVmodule:drivers/gpu/drm/drm_kms_helper
p426
aVmodule:drivers/hv/hv_vmbus
p427
aVmodule:drivers/md/dm-snapshot
p428
aVmodule:drivers/mmc/host/sdhci
p429
aVmodule:drivers/mmc/host/sdhci*
p430
aVmodule:net/ceph/libceph
p431
ass(Vimage
p432
g163
NV686-pae
p433
tp434
(dp435
Vconfigs
p436
(lp437
Vkernelarch-x86/config-arch-32
p438
aVi386/config.686-pae
p439
asVrecommends
p440
Vlibc6-i686
p441
ss(Vdescription
p442
g163
Vnone
p443
V686-pae
p444
tp445
(dp446
Vparts
p447
(lp448
Vxen
p449
ass(Vdescription
p450
g47
NVamd64
p451
tp452
(dp453
Vhardware-long
p454
VPCs with AMD64, Intel 64 or VIA Nano processors
p455
sVhardware
p456
V64-bit PCs
p457
ss(Vdescription
p458
g121
NVpowerpc64
p459
tp460
(dp461
Vhardware
p462
V64-bit PowerPC
p463
ss(Vimage
p464
g16
NVs390x
p465
tp466
(dp467
Vconfigs
p468
(lp469
Vkernelarch-s390/config-arch-64
p470
ass(Vdescription
p471
g47
g48
Vamd64
p472
tp473
(dp474
Vparts
p475
(lp476
Vxen
p477
ass(Vdescription
p478
g392
NVparisc64-smp
p479
tp480
(dp481
Vhardware-long
p482
VHP PA-RISC 64-bit SMP systems with support for more than 4 GB RAM
p483
sVhardware
p484
Vmultiprocessor 64-bit PA-RISC
p485
ss(Vbase
p486
g182
tp487
(dp488
Vkernel-arch
p489
Vmips
p490
sg37
(lp491
g39
ass(Vimage
p492
g216
tp493
(dp494
Vinstall-stem
p495
Vvmlinuz
p496
ss(Vbase
p497
g41
tp498
(dp499
Vkernel-arch
p500
Vmips
p501
sg37
(lp502
g39
ass(Vdescription
p503
g228
NValpha-generic
p504
tp505
(dp506
Vhardware-long
p507
VDEC Alpha systems with extended kernel start address (Wildfire, Titan, Marvel)
p508
sVhardware
p509
VAlpha
p510
ss(Vbuild
p511
g121
tp512
(dp513
Vimage-file
p514
Vvmlinux
p515
sVvdso
p516
I01
ss(Vbuild
p517
g392
tp518
(dp519
Vimage-file
p520
Vvmlinux
p521
ss(Vbase
p522
Vsh4
p523
tp524
(dp525
Vkernel-arch
p526
Vsh
p527
sg37
(lp528
g39
ass(Vdescription
p529
Ng209
tp530
(dp531
Vpart-short-rt
p532
VPREEMPT_RT
p533
sVpart-long-rt
p534
VThis kernel includes the PREEMPT_RT realtime patch set.
p535
sVparts
p536
(lp537
Vrt
p538
ass(Vdescription
p539
g182
NV5kc-malta
p540
tp541
(dp542
Vhardware-long
p543
VMIPS Malta boards
p544
sVhardware
p545
VMIPS Malta
p546
ss(g127
g300
g39
tp547
(dp548
g130
(lp549
Vpowerpc64le
p550
asg134
I01
ss(Vimage
p551
g82
NVarmmp-lpae
p552
tp553
(dp554
Vconfigs
p555
(lp556
Varmhf/config.armmp
p557
aVarmhf/config.lpae
p558
ass(Vbuild
p559
g61
tp560
(dp561
Vimage-file
p562
Vvmlinux
p563
sVvdso
p564
I01
ss(Vimage
p565
g228
tp566
(dp567
Vinstall-stem
p568
Vvmlinuz
p569
sVsuggests
p570
Vaboot, fdutils
p571
ss(Vimage
p572
g300
tp573
(dp574
Vconfigs
p575
(lp576
sVinstall-stem
p577
Vvmlinux
p578
sVsuggests
p579
Vmkvmlinuz
p580
ss(Vbase
p581
g16
tp582
(dp583
Vkernel-arch
p584
Vs390
p585
sg37
(lp586
g39
ass(Vbase
p587
g47
tp588
(dp589
Vkernel-arch
p590
Vx86
p591
sVcompiler
p592
Vgcc-5
p593
sVfeaturesets
p594
(lp595
Vnone
p596
aVrt
p597
ass(Vimage
p598
g392
tp599
(dp600
Vinstall-stem
p601
Vvmlinux
p602
sVsuggests
p603
Vpalo
p604
ss(Vimage
p605
g309
tp606
(dp607
Vinstall-stem
p608
Vvmlinux
p609
sVsuggests
p610
Vmkvmlinuz
p611
ss(Vbase
p612
NVrt
p613
tp614
(dp615
Venabled
p616
I01
ss(g127
g182
g39
tp617
(dp618
g130
(lp619
V5kc-malta
p620
aVocteon
p621
asg134
I01
ss(Vbase
p622
g82
tp623
(dp624
Vkernel-arch
p625
Varm
p626
sg37
(lp627
g39
ass(Vdescription
p628
g523
NVsh7785lcr
p629
tp630
(dp631
Vhardware-long
p632
VRenesas SH7785 reference board
p633
sVhardware
p634
Vsh7785lcr
p635
ss(Vimage
p636
g82
tp637
(dp638
Vconfigs
p639
(lp640
Vkernelarch-arm/config
p641
asVinstall-stem
p642
Vvmlinuz
p643
sVsuggests
p644
Vfdutils
p645
ss(Vbuild
p646
g41
tp647
(dp648
Vimage-file
p649
Vvmlinux
p650
ss(Vdescription
p651
g32
NVloongson-3
p652
tp653
(dp654
Vhardware-long
p655
VLoongson 3A or 3B based systems (e.g. from Loongson or Lemote)
p656
sVhardware
p657
VLoongson 3A/3B
p658
ss(Vbase
p659
g163
tp660
(dp661
Vkernel-arch
p662
Vx86
p663
sVcompiler
p664
Vgcc-5
p665
sVfeaturesets
p666
(lp667
Vnone
p668
aVrt
p669
ass(Vbase
p670
Vor1k
p671
tp672
(dp673
Vkernel-arch
p674
Vopenrisc
p675
sVfeaturesets
p676
(lp677
ss(g127
g41
g39
tp678
(dp679
g130
(lp680
V5kc-malta
p681
aVloongson-3
p682
aVocteon
p683
asg134
I01
ss(g127
g392
g39
tp684
(dp685
g130
(lp686
Vparisc
p687
aVparisc64-smp
p688
asg134
I01
ss(Vimage
p689
g41
NVocteon
p690
tp691
(dp692
Vconfigs
p693
(lp694
Vkernelarch-mips/config.octeon
p695
ass(Vbase
p696
g61
tp697
(dp698
Vkernel-arch
p699
Vpowerpc
p700
sg37
(lp701
g39
ass(Vimage
p702
g523
tp703
(dp704
Vinstall-stem
p705
Vvmlinuz
p706
sVsuggests
p707
Vfdutils
p708
ss(Vimage
p709
g16
tp710
(dp711
Vconfigs
p712
(lp713
sVbootloaders
p714
(lp715
Vs390-tools
p716
asVinstall-stem
p717
Vvmlinuz
p718
ss(Vdescription
p719
g71
NVm68k
p720
tp721
(dp722
Vhardware
p723
VMotorola MC68020+ family
p724
ss(Vbase
p725
g300
tp726
(dp727
Vkernel-arch
p728
Vpowerpc
p729
sg37
(lp730
g39
ass(Vdescription
p731
g523
NVsh7751r
p732
tp733
(dp734
Vhardware-long
p735
VRenesas SH7751R R2D plus board
p736
sVhardware
p737
Vsh7751r
p738
ss(Vdescription
p739
g163
NV686
p740
tp741
(dp742
Vhardware-long
p743
VPCs with one or more processors not supporting PAE
p744
sVhardware
p745
Volder PCs
p746
ss(Vbuild
p747
g523
tp748
(dp749
Vimage-file
p750
Varch/sh/boot/zImage
p751
ss(Vdescription
p752
g82
NVrpi
p753
tp754
(dp755
Vhardware-long
p756
VRaspberry PI
p757
sVhardware
p758
VRaspberryPI
p759
ss(Vbase
p760
g47
Vrt
p761
tp762
(dp763
Vflavours
p764
(lp765
Vamd64
p766
ass(Vdescription
p767
g32
NV4kc-malta
p768
tp769
(dp770
Vhardware-long
p771
VMIPS Malta boards
p772
sVhardware
p773
VMIPS Malta
p774
ss(Vdescription
p775
g182
NVocteon
p776
tp777
(dp778
Vhardware-long
p779
VCavium Networks Octeon
p780
sVhardware
p781
VOcteon
p782
ss(Vbuild
p783
g32
tp784
(dp785
Vimage-file
p786
Vvmlinux
p787
ss(Vimage
p788
g71
tp789
(dp790
Vinstall-stem
p791
Vvmlinuz
p792
sVsuggests
p793
Vvmelilo, fdutils
p794
ss(g127
g32
g39
tp795
(dp796
g130
(lp797
V4kc-malta
p798
aV5kc-malta
p799
aVloongson-2e
p800
aVloongson-2f
p801
aVloongson-3
p802
asg134
I01
ss(Vimage
p803
g182
NV5kc-malta
p804
tp805
(dp806
Vconfigs
p807
(lp808
Vkernelarch-mips/config.5kc-malta
p809
ass(Vdescription
p810
g61
NVpowerpc
p811
tp812
(dp813
Vhardware
p814
Vuniprocessor 32-bit PowerPC
p815
ss(Vxen
p816
g47
g48
Vamd64
p817
tp818
(dp819
Vflavours
p820
(lp821
Vamd64
p822
ass(Vimage
p823
g32
NV5kc-malta
p824
tp825
(dp826
Vconfigs
p827
(lp828
Vkernelarch-mips/config.5kc-malta
p829
ass(Vdescription
p830
g201
NV5kc-malta
p831
tp832
(dp833
Vhardware-long
p834
VMIPS Malta boards (64-bit)
p835
sVhardware
p836
VMIPS Malta (64-bit)
p837
ss(Vrelations
p838
g392
tp839
(dp840
Vgcc-4.9
p841
Vgcc-4.9 <!stage1>, binutils-hppa64 <!stage1>, gcc-4.9-hppa64 <!stage1>
p842
ss(Vbuild
p843
g16
NVs390x
p844
tp845
(dp846
Vdebug-info
p847
I01
ss(Vbuild
p848
g309
tp849
(dp850
Vimage-file
p851
Vvmlinux
p852
sVvdso
p853
I01
ss(Vrelations
p854
g82
tp855
(dp856
Vheaders%gcc-4.9
p857
Vlinux-compiler-gcc-4.9-arm
p858
ss(Vimage
p859
g121
tp860
(dp861
Vconfigs
p862
(lp863
sVinstall-stem
p864
Vvmlinux
p865
sVsuggests
p866
Vmkvmlinuz
p867
ss(Vdescription
p868
g392
NVparisc
p869
tp870
(dp871
Vhardware-long
p872
VHP PA-RISC 32-bit systems with max 4 GB RAM
p873
sVhardware
p874
V32-bit PA-RISC
p875
ss(Vimage
p876
g91
NVsparc64
p877
tp878
(dp879
Vconfigs
p880
(lp881
Vkernelarch-sparc/config-up
p882
ass(Vbase
p883
g163
Vrt
p884
tp885
(dp886
Vflavours
p887
(lp888
V686-pae
p889
ass(g127
g23
g39
tp890
(dp891
g130
(lp892
Vmarvell
p893
aVversatile
p894
asg134
I01
ss(Vdescription
p895
g41
NV5kc-malta
p896
tp897
(dp898
Vhardware-long
p899
VMIPS Malta boards
p900
sVhardware
p901
VMIPS Malta
p902
ss(Vabi
p903
g392
tp904
(dp905
Vignore-changes
p906
(lp907
Vdrm_dp_*
p908
ass(g127
g121
g39
tp909
(dp910
g130
(lp911
Vpowerpc64
p912
asg134
I01
ss(Vimage
p913
g201
NV5kc-malta
p914
tp915
(dp916
Vconfigs
p917
(lp918
Vkernelarch-mips/config.5kc-malta
p919
ass(Vimage
p920
g82
NVrpi2
p921
tp922
(dp923
Vconfigs
p924
(lp925
Varmhf/config.rpix
p926
aVarmhf/config.rpi2
p927
ass(g127
g71
g39
tp928
(dp929
g130
(lp930
Vm68k
p931
asg134
I01
ss(Vbase
p932
g392
NVparisc64-smp
p933
tp934
(dp935
Voverride-host-type
p936
Vhppa64-linux-gnu
p937
sVcflags
p938
V-fno-cse-follow-jumps
p939
ss(Vdescription
p940
g309
tp941
(dp942
Vhardware
p943
V32-bit PowerPC with SPE (instead of AltiVec) with SMP support
p944
ss(Vimage
p945
g182
tp946
(dp947
Vinstall-stem
p948
Vvmlinux
p949
ss(Vbuild
p950
g91
tp951
(dp952
Vimage-file
p953
Varch/sparc/boot/zImage
p954
ss(g127
g61
g39
tp955
(dp956
g130
(lp957
Vpowerpc
p958
aVpowerpc-smp
p959
aVpowerpc64
p960
asg134
I01
ss(Vbuild
p961
g82
NVrpi2
p962
tp963
(dp964
Vimage-file
p965
Varch/arm/boot/zImagerpdt
p966
ss(Vdescription
p967
g61
NVpowerpc-smp
p968
tp969
(dp970
Vhardware
p971
Vmultiprocessor 32-bit PowerPC
p972
ss(Vdescription
p973
g32
NV5kc-malta
p974
tp975
(dp976
Vhardware-long
p977
VMIPS Malta boards (64-bit)
p978
sVhardware
p979
VMIPS Malta (64-bit)
p980
ss(Vdescription
p981
g41
NVocteon
p982
tp983
(dp984
Vhardware-long
p985
VCavium Networks Octeon
p986
sVhardware
p987
VOcteon
p988
ss(Vdescription
p989
g23
NVmarvell
p990
tp991
(dp992
Vhardware-long
p993
VMarvell Kirkwood based systems (SheevaPlug, QNAP TS-119/TS-219, etc)\u000aand Orion 5181, 5182 and 5281 based systems (QNAP TS-109/TS-209, etc)
p994
sVhardware
p995
VMarvell Kirkwood/Orion
p996
ss(Vimage
p997
g32
NV4kc-malta
p998
tp999
(dp1000
Vconfigs
p1001
(lp1002
Vkernelarch-mips/config.4kc-malta
p1003
ass(Vbuild
p1004
g300
tp1005
(dp1006
Vimage-file
p1007
Vvmlinux
p1008
sVvdso
p1009
I01
ss(Vbase
p1010
Vs390
p1011
tp1012
(dp1013
Vkernel-arch
p1014
Vs390
p1015
sVfeaturesets
p1016
(lp1017
ss(Vdescription
p1018
g201
NV4kc-malta
p1019
tp1020
(dp1021
Vhardware-long
p1022
VMIPS Malta boards
p1023
sVhardware
p1024
VMIPS Malta
p1025
ss(Vdescription
p1026
g41
NVloongson-3
p1027
tp1028
(dp1029
Vhardware-long
p1030
VLoongson 3A or 3B based systems (e.g. from Loongson or Lemote)
p1031
sVhardware
p1032
VLoongson 3A/3B
p1033
ss(Vimage
p1034
g91
tp1035
(dp1036
Vconfigs
p1037
(lp1038
sVinstall-stem
p1039
Vvmlinuz
p1040
sVsuggests
p1041
Vsilo, fdutils
p1042
ss(Vdescription
p1043
tp1044
(dp1045
Vpart-long-xen
p1046
VThis kernel also runs on a Xen hypervisor.\u000aIt supports both privileged (dom0) and unprivileged (domU) operation.
p1047
sVpart-long-up
p1048
VThis kernel is not suitable for SMP (multi-processor,\u000amulti-core or hyper-threaded) systems.
p1049
ss(Vbuild
p1050
g163
tp1051
(dp1052
Vimage-file
p1053
Varch/x86/boot/bzImage
p1054
sVvdso
p1055
I01
ss(Vimage
p1056
g41
NVloongson-3
p1057
tp1058
(dp1059
Vconfigs
p1060
(lp1061
Vkernelarch-mips/config.loongson-3
p1062
ass(Vimage
p1063
g523
NVsh7785lcr
p1064
tp1065
(dp1066
Vrecommends
p1067
Vu-boot-tools
p1068
sVcheck-size
p1069
L4194304L
ss(Vimage
p1070
g61
NVpowerpc-smp
p1071
tp1072
(dp1073
Vconfigs
p1074
(lp1075
Vpowerpc/config.powerpc
p1076
aVpowerpc/config.powerpc-smp
p1077
ass(Vrelations
p1078
g163
tp1079
(dp1080
Vheaders%gcc-5
p1081
Vlinux-compiler-gcc-5-x86
p1082
ss(Vdescription
p1083
g201
NVocteon
p1084
tp1085
(dp1086
Vhardware-long
p1087
VCavium Networks Octeon
p1088
sVhardware
p1089
VOcteon
p1090
ss(g127
g16
g39
tp1091
(dp1092
g130
(lp1093
Vs390x
p1094
asg134
I01
ss(Vimage
p1095
g32
tp1096
(dp1097
Vinstall-stem
p1098
Vvmlinux
p1099
ss(Vimage
p1100
g32
NVloongson-3
p1101
tp1102
(dp1103
Vconfigs
p1104
(lp1105
Vkernelarch-mips/config.loongson-3
p1106
ass(Vbase
p1107
Vx32
p1108
tp1109
(dp1110
Vkernel-arch
p1111
Vx86
p1112
sVfeaturesets
p1113
(lp1114
ss(g127
g309
g39
tp1115
(dp1116
g130
(lp1117
Vpowerpcspe
p1118
asg134
I01
ss(Vimage
p1119
g41
NV5kc-malta
p1120
tp1121
(dp1122
Vconfigs
p1123
(lp1124
Vkernelarch-mips/config.5kc-malta
p1125
ass(Vimage
p1126
g47
tp1127
(dp1128
Vconfigs
p1129
(lp1130
sVbootloaders
p1131
(lp1132
Vgrub-pc
p1133
aVgrub-efi
p1134
aVextlinux
p1135
asVbreaks
p1136
Vxserver-xorg-input-vmmouse (<< 1:13.0.99)
p1137
sVinstall-stem
p1138
Vvmlinuz
p1139
ss(Vbase
p1140
g91
tp1141
(dp1142
Vkernel-arch
p1143
Vsparc
p1144
sg37
(lp1145
g39
ass(g127
g228
g39
tp1146
(dp1147
g130
(lp1148
Valpha-generic
p1149
aValpha-smp
p1150
asg134
I01
ss(Vdescription
p1151
g228
NValpha-smp
p1152
tp1153
(dp1154
Vhardware-long
p1155
VDEC Alpha SMP systems with extended kernel start address (Wildfire, Titan, Marvel)
p1156
sVhardware
p1157
VAlpha SMP
p1158
ss(Vbuild
p1159
g23
tp1160
(dp1161
Vimage-file
p1162
Varch/arm/boot/zImage
p1163
ss(Vimage
p1164
g23
tp1165
(dp1166
Vconfigs
p1167
(lp1168
Vkernelarch-arm/config
p1169
aVarmel/config
p1170
asVinstall-stem
p1171
Vvmlinuz
p1172
sVsuggests
p1173
Vfdutils
p1174
ss(Vdescription
p1175
g163
tp1176
(dp1177
Vpart-long-pae
p1178
VThis kernel requires PAE (Physical Address Extension).\u000aThis feature is supported by the Intel Pentium Pro/II/III/4/4M/D, Xeon,\u000aCore and Atom; AMD Geode NX, Athlon (K7), Duron, Opteron, Sempron,\u000aTurion or Phenom; Transmeta Efficeon; VIA C7; and some other processors.
p1179
ss(Vrelations
p1180
tp1181
(dp1182
Vgcc-4.9
p1183
Vgcc-4.9 <!stage1>
p1184
sVgcc-5
p1185
Vgcc-5 <!stage1>
p1186
sVgcc-4.8
p1187
Vgcc-4.8 <!stage1>
p1188
sVinitramfs-fallback
p1189
Vlinux-initramfs-tool
p1190
sVinitramfs-tools
p1191
Vinitramfs-tools (>= 0.110~)
p1192
ss(g127
g523
g39
tp1193
(dp1194
g130
(lp1195
Vsh7751r
p1196
aVsh7785lcr
p1197
asg134
I01
ss(Vbuild
p1198
g201
tp1199
(dp1200
Vimage-file
p1201
Vvmlinux
p1202
ss(Vimage
p1203
g121
NVpowerpc64
p1204
tp1205
(dp1206
Vconfigs
p1207
(lp1208
Vkernelarch-powerpc/config-arch-64
p1209
aVkernelarch-powerpc/config-arch-64-be
p1210
ass(Vimage
p1211
g182
NVocteon
p1212
tp1213
(dp1214
Vconfigs
p1215
(lp1216
Vkernelarch-mips/config.octeon
p1217
ass(Vbuild
p1218
g82
NVrpi
p1219
tp1220
(dp1221
Vimage-file
p1222
Varch/arm/boot/zImagerpdt
p1223
ss(Vimage
p1224
g201
tp1225
(dp1226
Vinstall-stem
p1227
Vvmlinux
p1228
ss(Vdescription
p1229
g300
NVpowerpc64le
p1230
tp1231
(dp1232
Vhardware
p1233
VLittle-endian 64-bit PowerPC
p1234
ss(Vbase
p1235
g163
g443
tp1236
(dp1237
Vflavours
p1238
(lp1239
V686
p1240
aV686-pae
p1241
ass(Vbuild
p1242
g163
NV686-pae
p1243
tp1244
(dp1245
Vdebug-info
p1246
I01
ss(Vpackages
p1247
tp1248
(dp1249
Vlibc-dev
p1250
I00
ss(Vbuild
p1251
g216
tp1252
(dp1253
Vvdso
p1254
I01
sVimage-file
p1255
Varch/arm64/boot/Image
p1256
sVdebug-info
p1257
I01
ss(Vdescription
p1258
g91
NVsparc64
p1259
tp1260
(dp1261
Vhardware
p1262
Vuniprocessor 64-bit UltraSPARC
p1263
ss(Vbuild
p1264
g47
tp1265
(dp1266
Vvdso
p1267
I01
sVimage-file
p1268
Varch/x86/boot/bzImage
p1269
sVdebug-info
p1270
I01
ss(Vbase
p1271
g23
tp1272
(dp1273
Vkernel-arch
p1274
Varm
p1275
sg37
(lp1276
g39
ass(Vbuild
p1277
g228
tp1278
(dp1279
Vimage-file
p1280
Varch/alpha/boot/vmlinux.gz
p1281
ss(Vdescription
p1282
g216
NVarm64
p1283
tp1284
(dp1285
Vhardware
p1286
V64-bit ARMv8 machines
p1287
ss(g127
g201
g39
tp1288
(dp1289
g130
(lp1290
V4kc-malta
p1291
aV5kc-malta
p1292
aVocteon
p1293
asg134
I01
sstp1294
Rp1295
.