ccopy_reg
_reconstructor
p0
(cdebian_linux.config
ConfigCore
p1
c__builtin__
dict
p2
(dp3
(Vbase
p4
Vsparc64
p5
Vnone
p6
tp7
(dp8
Vflavours
p9
(lp10
Vsparc64
p11
aVsparc64-smp
p12
asVimplicit-flavour
p13
I01
ss(Vimage
p14
Vmips64
p15
tp16
(dp17
Vinstall-stem
p18
Vvmlinux
p19
ss(g4
Varmhf
p20
g6
tp21
(dp22
g9
(lp23
Vrpi
p24
aVrpi2
p25
asg13
I01
ss(Vbuild
p26
Vhppa
p27
tp28
(dp29
Vimage-file
p30
Vvmlinux
p31
ss(Vimage
p32
Vmipsel
p33
NVloongson-2e
p34
tp35
(dp36
Vconfigs
p37
(lp38
Vkernelarch-mips/config.loongson-2e
p39
ass(Vimage
p40
Vppc64
p41
NVpowerpc64
p42
tp43
(dp44
Vconfigs
p45
(lp46
Vkernelarch-powerpc/config-arch-64
p47
aVkernelarch-powerpc/config-arch-64-be
p48
ass(Vdescription
p49
g20
NVarmmp-lpae
p50
tp51
(dp52
Vhardware-long
p53
VARMv7 multiplatform kernel supporting LPAE. See\u000ahttps://wiki.debian.org/DebianKernel/ARMMP for details of supported\u000aplatforms.
p54
sVhardware
p55
VARMv7 multiplatform compatible SoCs supporting LPAE
p56
ss(Vabi
p57
tp58
(dp59
Vignore-changes
p60
(lp61
V__scm_destroy
p62
aV__scm_send
p63
aVscm_detach_fds
p64
aVscm_fp_dup
p65
aVefivar_validate
p66
aVget_thermal_instance
p67
aVinet_csk_reqsk_queue_add
p68
aVtcp_req_err
p69
aVmodule:drivers/gpu/drm/drm_kms_helper
p70
aVmodule:drivers/hv/hv_vmbus
p71
aVmodule:drivers/md/dm-snapshot
p72
aVmodule:drivers/mmc/host/sdhci
p73
aVmodule:drivers/mmc/host/sdhci*
p74
aVmodule:net/ceph/libceph
p75
asVabiname
p76
V1
p77
ss(Vdescription
p78
Vmips64el
p79
NVocteon
p80
tp81
(dp82
Vhardware-long
p83
VCavium Networks Octeon
p84
sVhardware
p85
VOcteon
p86
ss(Vimage
p87
g79
NVocteon
p88
tp89
(dp90
Vconfigs
p91
(lp92
Vkernelarch-mips/config.octeon
p93
ass(Vbuild
p94
Vs390x
p95
NVs390x
p96
tp97
(dp98
Vdebug-info
p99
I01
ss(g4
Valpha
p100
g6
tp101
(dp102
g9
(lp103
Valpha-generic
p104
aValpha-smp
p105
asg13
I01
ss(Vimage
p106
Vmips
p107
NVocteon
p108
tp109
(dp110
Vconfigs
p111
(lp112
Vkernelarch-mips/config.octeon
p113
ass(Vbase
p114
Vamd64
p115
tp116
(dp117
Vfeaturesets
p118
(lp119
Vnone
p120
aVrt
p121
asVcompiler
p122
Vgcc-5
p123
sVkernel-arch
p124
Vx86
p125
ss(Vdescription
p126
Vi386
p127
NV686-pae
p128
tp129
(dp130
Vparts
p131
(lp132
Vpae
p133
asVhardware-long
p134
VPCs with one or more processors supporting PAE
p135
sVhardware
p136
Vmodern PCs
p137
ss(Vrelations
p138
g127
tp139
(dp140
Vheaders%gcc-5
p141
Vlinux-compiler-gcc-5-x86
p142
ss(Vimage
p143
Vsh4
p144
tp145
(dp146
Vsuggests
p147
Vfdutils
p148
sVinstall-stem
p149
Vvmlinuz
p150
ss(Vbase
p151
g100
tp152
(dp153
Vfeaturesets
p154
(lp155
g6
asVkernel-arch
p156
Valpha
p157
ss(Vdescription
p158
Varmel
p159
NVmarvell
p160
tp161
(dp162
Vhardware-long
p163
VMarvell Kirkwood based systems (SheevaPlug, QNAP TS-119/TS-219, etc)\u000aand Orion 5181, 5182 and 5281 based systems (QNAP TS-109/TS-209, etc)
p164
sVhardware
p165
VMarvell Kirkwood/Orion
p166
ss(Vdescription
p167
g15
NVocteon
p168
tp169
(dp170
Vhardware-long
p171
VCavium Networks Octeon
p172
sVhardware
p173
VOcteon
p174
ss(Vbuild
p175
g144
tp176
(dp177
Vimage-file
p178
Varch/sh/boot/zImage
p179
ss(Vdescription
p180
g41
NVpowerpc64
p181
tp182
(dp183
Vhardware
p184
V64-bit PowerPC
p185
ss(Vdescription
p186
g159
NVversatile
p187
tp188
(dp189
Vhardware-long
p190
VVersatile systems (PB, AB, Qemu)
p191
sVhardware
p192
VVersatile
p193
ss(Vdescription
p194
g79
NVloongson-3
p195
tp196
(dp197
Vhardware-long
p198
VLoongson 3A or 3B based systems (e.g. from Loongson or Lemote)
p199
sVhardware
p200
VLoongson 3A/3B
p201
ss(Vbase
p202
Vpowerpcspe
p203
tp204
(dp205
g154
(lp206
g6
asVkernel-arch
p207
Vpowerpc
p208
ss(Vimage
p209
g95
tp210
(dp211
Vconfigs
p212
(lp213
sVbootloaders
p214
(lp215
Vs390-tools
p216
asVinstall-stem
p217
Vvmlinuz
p218
ss(Vbuild
p219
Vppc64el
p220
tp221
(dp222
Vvdso
p223
I01
sVimage-file
p224
Vvmlinux
p225
ss(Vbase
p226
NVrt
p227
tp228
(dp229
Venabled
p230
I01
ss(Vbuild
p231
g100
tp232
(dp233
Vimage-file
p234
Varch/alpha/boot/vmlinux.gz
p235
ss(Vbase
p236
g220
tp237
(dp238
g154
(lp239
g6
asVkernel-arch
p240
Vpowerpc
p241
ss(Vimage
p242
g220
tp243
(dp244
Vconfigs
p245
(lp246
sVsuggests
p247
Vmkvmlinuz
p248
sVinstall-stem
p249
Vvmlinux
p250
ss(Vabi
p251
g27
tp252
(dp253
Vignore-changes
p254
(lp255
Vdrm_dp_*
p256
ass(Vrelations
p257
g115
tp258
(dp259
Vheaders%gcc-5
p260
Vlinux-compiler-gcc-5-x86
p261
ss(Vdescription
p262
g20
NVrpi
p263
tp264
(dp265
Vhardware-long
p266
VRaspberry PI
p267
sVhardware
p268
VRaspberryPI
p269
ss(Vimage
p270
g20
tp271
(dp272
Vconfigs
p273
(lp274
Vkernelarch-arm/config
p275
asVsuggests
p276
Vfdutils
p277
sVinstall-stem
p278
Vvmlinuz
p279
ss(g4
g95
g6
tp280
(dp281
g9
(lp282
Vs390x
p283
asg13
I01
ss(Vimage
p284
g115
tp285
(dp286
Vconfigs
p287
(lp288
sVbreaks
p289
Vxserver-xorg-input-vmmouse (<< 1:13.0.99)
p290
sVbootloaders
p291
(lp292
Vgrub-pc
p293
aVgrub-efi
p294
aVextlinux
p295
asVinstall-stem
p296
Vvmlinuz
p297
ss(Vbuild
p298
g41
tp299
(dp300
Vvdso
p301
I01
sVimage-file
p302
Vvmlinux
p303
ss(Vbase
p304
Vx32
p305
tp306
(dp307
Vfeaturesets
p308
(lp309
sVkernel-arch
p310
Vx86
p311
ss(Vimage
p312
g5
NVsparc64-smp
p313
tp314
(dp315
Vconfigs
p316
(lp317
Vkernelarch-sparc/config-smp
p318
ass(Vbuild
p319
g127
tp320
(dp321
Vvdso
p322
I01
sVimage-file
p323
Varch/x86/boot/bzImage
p324
ss(Vimage
p325
g220
NVpowerpc64le
p326
tp327
(dp328
Vconfigs
p329
(lp330
Vkernelarch-powerpc/config-arch-64
p331
aVkernelarch-powerpc/config-arch-64-le
p332
ass(Vbuild
p333
Varm64
p334
tp335
(dp336
Vvdso
p337
I01
sVdebug-info
p338
I01
sVimage-file
p339
Varch/arm64/boot/Image
p340
ss(Vrelations
p341
g159
tp342
(dp343
Vheaders%gcc-4.9
p344
Vlinux-compiler-gcc-4.9-arm
p345
ss(Vdescription
p346
Vpowerpc
p347
NVpowerpc64
p348
tp349
(dp350
Vhardware
p351
V64-bit PowerPC
p352
ss(Vbase
p353
tp354
(dp355
Varches
p356
(lp357
Valpha
p358
aVamd64
p359
aVarm64
p360
aVarmel
p361
aVarmhf
p362
aVhppa
p363
aVi386
p364
aVm68k
p365
aVmips
p366
aVmipsel
p367
aVmips64
p368
aVmips64el
p369
aVor1k
p370
aVpowerpc
p371
aVpowerpcspe
p372
aVppc64
p373
aVppc64el
p374
aVs390
p375
aVs390x
p376
aVsh4
p377
aVsparc
p378
aVsparc64
p379
aVx32
p380
asVfeaturesets
p381
(lp382
Vnone
p383
aVrt
p384
asVcompiler
p385
Vgcc-4.9
p386
ss(Vdescription
p387
g347
NVpowerpc
p388
tp389
(dp390
Vhardware
p391
Vuniprocessor 32-bit PowerPC
p392
ss(Vbase
p393
g144
tp394
(dp395
g154
(lp396
g6
asVkernel-arch
p397
Vsh
p398
ss(Vbase
p399
g27
NVparisc64-smp
p400
tp401
(dp402
Voverride-host-type
p403
Vhppa64-linux-gnu
p404
sVcflags
p405
V-fno-cse-follow-jumps
p406
ss(Vbase
p407
g27
tp408
(dp409
g154
(lp410
g6
asVkernel-arch
p411
Vparisc
p412
ss(Vbase
p413
g20
tp414
(dp415
g154
(lp416
g6
asVkernel-arch
p417
Varm
p418
ss(Vdescription
p419
g144
NVsh7751r
p420
tp421
(dp422
Vhardware-long
p423
VRenesas SH7751R R2D plus board
p424
sVhardware
p425
Vsh7751r
p426
ss(g4
g15
g6
tp427
(dp428
g9
(lp429
V5kc-malta
p430
aVocteon
p431
asg13
I01
ss(g4
g79
g6
tp432
(dp433
g9
(lp434
V5kc-malta
p435
aVloongson-3
p436
aVocteon
p437
asg13
I01
ss(Vdescription
p438
g33
NV5kc-malta
p439
tp440
(dp441
Vhardware-long
p442
VMIPS Malta boards (64-bit)
p443
sVhardware
p444
VMIPS Malta (64-bit)
p445
ss(Vdescription
p446
g15
NV5kc-malta
p447
tp448
(dp449
Vhardware-long
p450
VMIPS Malta boards
p451
sVhardware
p452
VMIPS Malta
p453
ss(Vbase
p454
g127
Vrt
p455
tp456
(dp457
Vflavours
p458
(lp459
V686-pae
p460
ass(Vdescription
p461
g100
NValpha-smp
p462
tp463
(dp464
Vhardware-long
p465
VDEC Alpha SMP systems with extended kernel start address (Wildfire, Titan, Marvel)
p466
sVhardware
p467
VAlpha SMP
p468
ss(Vbuild
p469
g107
tp470
(dp471
Vimage-file
p472
Vvmlinux
p473
ss(Vimage
p474
g144
NVsh7785lcr
p475
tp476
(dp477
Vrecommends
p478
Vu-boot-tools
p479
sVcheck-size
p480
L4194304L
ss(Vdescription
p481
g127
NV686
p482
tp483
(dp484
Vhardware-long
p485
VPCs with one or more processors not supporting PAE
p486
sVhardware
p487
Volder PCs
p488
ss(Vdescription
p489
g20
NVarmmp
p490
tp491
(dp492
Vhardware-long
p493
VARMv7 multiplatform kernel. See\u000ahttps://wiki.debian.org/DebianKernel/ARMMP for details of supported\u000aplatforms
p494
sVhardware
p495
VARMv7 multiplatform compatible SoCs
p496
ss(Vbase
p497
g15
tp498
(dp499
g154
(lp500
g6
asVkernel-arch
p501
Vmips
p502
ss(Vimage
p503
g347
tp504
(dp505
Vconfigs
p506
(lp507
sVsuggests
p508
Vmkvmlinuz
p509
sVinstall-stem
p510
Vvmlinux
p511
ss(Vabi
p512
g95
tp513
(dp514
Vignore-changes
p515
(lp516
Vmodule:arch/s390/kvm/kvm
p517
ass(Vrelations
p518
g95
tp519
(dp520
Vheaders%gcc-4.9
p521
Vlinux-compiler-gcc-4.9-s390
p522
ss(Vbase
p523
Vs390
p524
tp525
(dp526
Vfeaturesets
p527
(lp528
sVkernel-arch
p529
Vs390
p530
ss(Vimage
p531
g127
NV686
p532
tp533
(dp534
Vconfigs
p535
(lp536
Vkernelarch-x86/config-arch-32
p537
aVi386/config.686
p538
asVrecommends
p539
Vlibc6-i686
p540
ss(Vbase
p541
g334
Vnone
p542
tp543
(dp544
Vflavours
p545
(lp546
Varm64
p547
ass(Vbase
p548
g115
Vnone
p549
tp550
(dp551
Vflavours
p552
(lp553
Vamd64
p554
ass(Vdescription
p555
g347
NVpowerpc-smp
p556
tp557
(dp558
Vhardware
p559
Vmultiprocessor 32-bit PowerPC
p560
ss(g4
g107
g6
tp561
(dp562
g9
(lp563
V4kc-malta
p564
aV5kc-malta
p565
aVocteon
p566
asg13
I01
ss(Vdescription
p567
g115
NVamd64
p568
tp569
(dp570
Vhardware-long
p571
VPCs with AMD64, Intel 64 or VIA Nano processors
p572
sVhardware
p573
V64-bit PCs
p574
ss(Vbase
p575
g159
tp576
(dp577
g154
(lp578
g6
asVkernel-arch
p579
Varm
p580
ss(Vdescription
p581
g220
NVpowerpc64le
p582
tp583
(dp584
Vhardware
p585
VLittle-endian 64-bit PowerPC
p586
ss(Vbase
p587
g5
tp588
(dp589
g154
(lp590
g6
asVkernel-arch
p591
Vsparc
p592
ss(Vdescription
p593
g107
NVocteon
p594
tp595
(dp596
Vhardware-long
p597
VCavium Networks Octeon
p598
sVhardware
p599
VOcteon
p600
ss(Vpackages
p601
tp602
(dp603
Vlibc-dev
p604
I00
ss(Vbase
p605
g334
tp606
(dp607
Vfeaturesets
p608
(lp609
Vnone
p610
asVkernel-arch
p611
Varm64
p612
ss(Vimage
p613
g33
NV5kc-malta
p614
tp615
(dp616
Vconfigs
p617
(lp618
Vkernelarch-mips/config.5kc-malta
p619
ass(Vbuild
p620
Vm68k
p621
tp622
(dp623
Vimage-file
p624
Vvmlinux.gz
p625
ss(Vimage
p626
g159
NVmarvell
p627
tp628
(dp629
Vcheck-size-with-dtb
p630
I01
sVbreaks
p631
Vflash-kernel (<< 3.57~)
p632
sVcheck-size
p633
L2097080L
sVrecommends
p634
Vu-boot-tools
p635
ss(g4
g159
g6
tp636
(dp637
g9
(lp638
Vmarvell
p639
aVversatile
p640
asg13
I01
ss(Vimage
p641
g107
NV4kc-malta
p642
tp643
(dp644
Vconfigs
p645
(lp646
Vkernelarch-mips/config.4kc-malta
p647
ass(Vbuild
p648
g20
NVrpi
p649
tp650
(dp651
Vimage-file
p652
Varch/arm/boot/zImagerpdt
p653
ss(Vimage
p654
g107
tp655
(dp656
Vinstall-stem
p657
Vvmlinux
p658
ss(Vimage
p659
tp660
(dp661
Vinitramfs-generators
p662
(lp663
Vinitramfs-tools
p664
aVinitramfs-fallback
p665
ass(Vbuild
p666
g79
tp667
(dp668
Vimage-file
p669
Vvmlinux
p670
ss(Vbuild
p671
g15
tp672
(dp673
Vimage-file
p674
Vvmlinux
p675
ss(Vbase
p676
g621
tp677
(dp678
g154
(lp679
g6
asVcompiler
p680
Vgcc-4.8
p681
sVkernel-arch
p682
Vm68k
p683
sVcflags
p684
V-ffreestanding
p685
ss(Vxen
p686
g115
g549
Vamd64
p687
tp688
(dp689
Vflavours
p690
(lp691
Vamd64
p692
ass(Vdescription
p693
g5
NVsparc64-smp
p694
tp695
(dp696
Vhardware
p697
Vmultiprocessor 64-bit UltraSPARC
p698
ss(Vbuild
p699
g95
tp700
(dp701
Vvdso
p702
I01
sVimage-file
p703
Varch/s390/boot/image
p704
ss(Vrelations
p705
g27
tp706
(dp707
Vgcc-4.9
p708
Vgcc-4.9 <!stage1>, binutils-hppa64 <!stage1>, gcc-4.9-hppa64 <!stage1>
p709
ss(Vimage
p710
g79
tp711
(dp712
Vinstall-stem
p713
Vvmlinux
p714
ss(Vbase
p715
g115
Vrt
p716
tp717
(dp718
Vflavours
p719
(lp720
Vamd64
p721
ass(Vbase
p722
g127
tp723
(dp724
Vfeaturesets
p725
(lp726
Vnone
p727
aVrt
p728
asVcompiler
p729
Vgcc-5
p730
sVkernel-arch
p731
Vx86
p732
ss(Vimage
p733
g41
tp734
(dp735
Vconfigs
p736
(lp737
sVsuggests
p738
Vmkvmlinuz
p739
sVinstall-stem
p740
Vvmlinux
p741
ss(g4
g220
g6
tp742
(dp743
g9
(lp744
Vpowerpc64le
p745
asg13
I01
ss(Vimage
p746
g15
NVocteon
p747
tp748
(dp749
Vconfigs
p750
(lp751
Vkernelarch-mips/config.octeon
p752
ass(Vimage
p753
g347
NVpowerpc-smp
p754
tp755
(dp756
Vconfigs
p757
(lp758
Vpowerpc/config.powerpc
p759
aVpowerpc/config.powerpc-smp
p760
ass(Vimage
p761
g127
NV686-pae
p762
tp763
(dp764
Vconfigs
p765
(lp766
Vkernelarch-x86/config-arch-32
p767
aVi386/config.686-pae
p768
asVrecommends
p769
Vlibc6-i686
p770
ss(Vdescription
p771
g621
NVm68k
p772
tp773
(dp774
Vhardware
p775
VMotorola MC68020+ family
p776
ss(Vdescription
p777
g33
NVloongson-2e
p778
tp779
(dp780
Vhardware-long
p781
VLemote Loongson 2E systems
p782
sVhardware
p783
VLoongson 2E
p784
ss(Vimage
p785
g20
NVarmmp-lpae
p786
tp787
(dp788
Vconfigs
p789
(lp790
Varmhf/config.armmp
p791
aVarmhf/config.lpae
p792
ass(Vbuild
p793
g5
tp794
(dp795
Vimage-file
p796
Varch/sparc/boot/zImage
p797
ss(Vimage
p798
g20
NVrpi2
p799
tp800
(dp801
Vconfigs
p802
(lp803
Varmhf/config.rpix
p804
aVarmhf/config.rpi2
p805
ass(Vbuild
p806
g33
tp807
(dp808
Vimage-file
p809
Vvmlinux
p810
ss(g4
g41
g6
tp811
(dp812
g9
(lp813
Vpowerpc64
p814
asg13
I01
ss(Vimage
p815
g334
tp816
(dp817
Vinstall-stem
p818
Vvmlinuz
p819
ss(Vbuild
p820
g159
tp821
(dp822
Vimage-file
p823
Varch/arm/boot/zImage
p824
ss(Vbase
p825
g127
Vnone
p826
tp827
(dp828
Vflavours
p829
(lp830
V686
p831
aV686-pae
p832
ass(Vrelations
p833
tp834
(dp835
Vgcc-4.8
p836
Vgcc-4.8 <!stage1>
p837
sVgcc-5
p838
Vgcc-5 <!stage1>
p839
sVinitramfs-fallback
p840
Vlinux-initramfs-tool
p841
sVinitramfs-tools
p842
Vinitramfs-tools (>= 0.110~)
p843
sVgcc-4.9
p844
Vgcc-4.9 <!stage1>
p845
ss(Vdescription
p846
g33
NVloongson-2f
p847
tp848
(dp849
Vhardware-long
p850
VLemote Loongson 2F systems
p851
sVhardware
p852
VLoongson 2F
p853
ss(Vdescription
p854
NVrt
p855
tp856
(dp857
Vparts
p858
(lp859
Vrt
p860
asVpart-short-rt
p861
VPREEMPT_RT
p862
sVpart-long-rt
p863
VThis kernel includes the PREEMPT_RT realtime patch set.
p864
ss(Vimage
p865
g159
tp866
(dp867
Vconfigs
p868
(lp869
Vkernelarch-arm/config
p870
aVarmel/config
p871
asVsuggests
p872
Vfdutils
p873
sVinstall-stem
p874
Vvmlinuz
p875
ss(Vdescription
p876
g100
NValpha-generic
p877
tp878
(dp879
Vhardware-long
p880
VDEC Alpha systems with extended kernel start address (Wildfire, Titan, Marvel)
p881
sVhardware
p882
VAlpha
p883
ss(Vdescription
p884
g27
NVparisc
p885
tp886
(dp887
Vhardware-long
p888
VHP PA-RISC 32-bit systems with max 4 GB RAM
p889
sVhardware
p890
V32-bit PA-RISC
p891
ss(g4
g203
g6
tp892
(dp893
g9
(lp894
Vpowerpcspe
p895
asg13
I01
ss(Vbuild
p896
g347
tp897
(dp898
Vvdso
p899
I01
sVimage-file
p900
Vvmlinux
p901
ss(Vbase
p902
g347
tp903
(dp904
g154
(lp905
g6
asVkernel-arch
p906
Vpowerpc
p907
ss(Vbase
p908
g33
tp909
(dp910
g154
(lp911
g6
asVkernel-arch
p912
Vmips
p913
ss(Vdescription
p914
g203
tp915
(dp916
Vhardware
p917
V32-bit PowerPC with SPE (instead of AltiVec) with SMP support
p918
ss(Vdescription
p919
g144
NVsh7785lcr
p920
tp921
(dp922
Vhardware-long
p923
VRenesas SH7785 reference board
p924
sVhardware
p925
Vsh7785lcr
p926
ss(Vbuild
p927
g20
tp928
(dp929
Vvdso
p930
I01
sVimage-file
p931
Varch/arm/boot/zImage
p932
ss(Vdescription
p933
g127
tp934
(dp935
Vpart-long-pae
p936
VThis kernel requires PAE (Physical Address Extension).\u000aThis feature is supported by the Intel Pentium Pro/II/III/4/4M/D, Xeon,\u000aCore and Atom; AMD Geode NX, Athlon (K7), Duron, Opteron, Sempron,\u000aTurion or Phenom; Transmeta Efficeon; VIA C7; and some other processors.
p937
ss(Vbase
p938
g41
tp939
(dp940
g154
(lp941
g6
asVkernel-arch
p942
Vpowerpc
p943
ss(Vversion
p944
tp945
(dp946
Vabiname
p947
V4.4.0-1
p948
sVabiname_base
p949
V4.4.0
p950
sVsource
p951
V4.4.6-1+rpi1
p952
sVupstream
p953
V4.4
p954
ss(Vimage
p955
g15
NV5kc-malta
p956
tp957
(dp958
Vconfigs
p959
(lp960
Vkernelarch-mips/config.5kc-malta
p961
ass(Vimage
p962
g33
NVloongson-2f
p963
tp964
(dp965
Vconfigs
p966
(lp967
Vkernelarch-mips/config.loongson-2f
p968
asVrecommends
p969
Vlibc6-loongson2f
p970
ss(Vimage
p971
g33
tp972
(dp973
Vinstall-stem
p974
Vvmlinux
p975
ss(Vdescription
p976
g334
NVarm64
p977
tp978
(dp979
Vhardware
p980
V64-bit ARMv8 machines
p981
ss(Vimage
p982
g334
NVarm64
p983
tp984
(dp985
s(Vdescription
p986
g107
NV4kc-malta
p987
tp988
(dp989
Vhardware-long
p990
VMIPS Malta boards
p991
sVhardware
p992
VMIPS Malta
p993
ss(g4
g144
g6
tp994
(dp995
g9
(lp996
Vsh7751r
p997
aVsh7785lcr
p998
asg13
I01
ss(Vimage
p999
g27
tp1000
(dp1001
Vsuggests
p1002
Vpalo
p1003
sVinstall-stem
p1004
Vvmlinux
p1005
ss(Vimage
p1006
g127
tp1007
(dp1008
Vconfigs
p1009
(lp1010
sVbreaks
p1011
Vxserver-xorg-input-vmmouse (<< 1:13.0.99)
p1012
sVbootloaders
p1013
(lp1014
Vgrub-pc
p1015
aVextlinux
p1016
asVinstall-stem
p1017
Vvmlinuz
p1018
ss(Vbuild
p1019
g20
NVrpi2
p1020
tp1021
(dp1022
Vimage-file
p1023
Varch/arm/boot/zImagerpdt
p1024
ss(Vbase
p1025
Vsparc
p1026
tp1027
(dp1028
Vfeaturesets
p1029
(lp1030
sVkernel-arch
p1031
Vsparc
p1032
ss(Vimage
p1033
g203
tp1034
(dp1035
Vsuggests
p1036
Vmkvmlinuz
p1037
sVinstall-stem
p1038
Vvmlinux
p1039
ss(Vbase
p1040
g79
tp1041
(dp1042
g154
(lp1043
g6
asVkernel-arch
p1044
Vmips
p1045
ss(Vimage
p1046
g5
NVsparc64
p1047
tp1048
(dp1049
Vconfigs
p1050
(lp1051
Vkernelarch-sparc/config-up
p1052
ass(Vimage
p1053
g95
NVs390x
p1054
tp1055
(dp1056
Vconfigs
p1057
(lp1058
Vkernelarch-s390/config-arch-64
p1059
ass(Vdescription
p1060
g115
g549
Vamd64
p1061
tp1062
(dp1063
Vparts
p1064
(lp1065
Vxen
p1066
ass(Vimage
p1067
g621
tp1068
(dp1069
Vsuggests
p1070
Vvmelilo, fdutils
p1071
sVinstall-stem
p1072
Vvmlinuz
p1073
ss(Vdescription
p1074
g127
g826
V686-pae
p1075
tp1076
(dp1077
Vparts
p1078
(lp1079
Vxen
p1080
ass(Vimage
p1081
g79
NVloongson-3
p1082
tp1083
(dp1084
Vconfigs
p1085
(lp1086
Vkernelarch-mips/config.loongson-3
p1087
ass(Vimage
p1088
g33
NVloongson-3
p1089
tp1090
(dp1091
Vconfigs
p1092
(lp1093
Vkernelarch-mips/config.loongson-3
p1094
ass(Vimage
p1095
g79
NV5kc-malta
p1096
tp1097
(dp1098
Vconfigs
p1099
(lp1100
Vkernelarch-mips/config.5kc-malta
p1101
ass(Vdescription
p1102
g5
NVsparc64
p1103
tp1104
(dp1105
Vhardware
p1106
Vuniprocessor 64-bit UltraSPARC
p1107
ss(Vbase
p1108
g107
tp1109
(dp1110
g154
(lp1111
g6
asVkernel-arch
p1112
Vmips
p1113
ss(Vdescription
p1114
g79
NV5kc-malta
p1115
tp1116
(dp1117
Vhardware-long
p1118
VMIPS Malta boards
p1119
sVhardware
p1120
VMIPS Malta
p1121
ss(Vimage
p1122
g115
NVamd64
p1123
tp1124
(dp1125
Vconfigs
p1126
(lp1127
Vkernelarch-x86/config-arch-64
p1128
ass(Vdescription
p1129
g27
NVparisc64-smp
p1130
tp1131
(dp1132
Vhardware-long
p1133
VHP PA-RISC 64-bit SMP systems with support for more than 4 GB RAM
p1134
sVhardware
p1135
Vmultiprocessor 64-bit PA-RISC
p1136
ss(Vrelations
p1137
g20
tp1138
(dp1139
Vheaders%gcc-4.9
p1140
Vlinux-compiler-gcc-4.9-arm
p1141
ss(g4
g33
g6
tp1142
(dp1143
g9
(lp1144
V4kc-malta
p1145
aV5kc-malta
p1146
aVloongson-2e
p1147
aVloongson-2f
p1148
aVloongson-3
p1149
asg13
I01
ss(Vdescription
p1150
g20
NVrpi2
p1151
tp1152
(dp1153
Vhardware-long
p1154
VRaspberry PI 2
p1155
sVhardware
p1156
VRaspberryPI2
p1157
ss(Vbase
p1158
g95
tp1159
(dp1160
g154
(lp1161
g6
asVkernel-arch
p1162
Vs390
p1163
ss(Vdescription
p1164
g95
NVs390x
p1165
tp1166
(dp1167
Vhardware
p1168
VIBM zSeries
p1169
ss(Vbuild
p1170
g115
tp1171
(dp1172
Vvdso
p1173
I01
sVdebug-info
p1174
I01
sVimage-file
p1175
Varch/x86/boot/bzImage
p1176
ss(Vimage
p1177
g107
NV5kc-malta
p1178
tp1179
(dp1180
Vconfigs
p1181
(lp1182
Vkernelarch-mips/config.5kc-malta
p1183
ass(g4
g27
g6
tp1184
(dp1185
g9
(lp1186
Vparisc
p1187
aVparisc64-smp
p1188
asg13
I01
ss(Vbase
p1189
Vor1k
p1190
tp1191
(dp1192
Vfeaturesets
p1193
(lp1194
sVkernel-arch
p1195
Vopenrisc
p1196
ss(Vimage
p1197
g5
tp1198
(dp1199
Vconfigs
p1200
(lp1201
sVsuggests
p1202
Vsilo, fdutils
p1203
sVinstall-stem
p1204
Vvmlinuz
p1205
ss(Vimage
p1206
g20
NVrpi
p1207
tp1208
(dp1209
Vconfigs
p1210
(lp1211
Varmhf/config.rpix
p1212
aVarmhf/config.rpi
p1213
ass(Vimage
p1214
g100
tp1215
(dp1216
Vsuggests
p1217
Vaboot, fdutils
p1218
sVinstall-stem
p1219
Vvmlinuz
p1220
ss(Vdescription
p1221
g107
NV5kc-malta
p1222
tp1223
(dp1224
Vhardware-long
p1225
VMIPS Malta boards (64-bit)
p1226
sVhardware
p1227
VMIPS Malta (64-bit)
p1228
ss(Vimage
p1229
g347
NVpowerpc64
p1230
tp1231
(dp1232
Vconfigs
p1233
(lp1234
Vkernelarch-powerpc/config-arch-64
p1235
aVkernelarch-powerpc/config-arch-64-be
p1236
ass(Vimage
p1237
g33
NV4kc-malta
p1238
tp1239
(dp1240
Vconfigs
p1241
(lp1242
Vkernelarch-mips/config.4kc-malta
p1243
ass(Vdescription
p1244
tp1245
(dp1246
Vpart-long-up
p1247
VThis kernel is not suitable for SMP (multi-processor,\u000amulti-core or hyper-threaded) systems.
p1248
sVpart-long-xen
p1249
VThis kernel also runs on a Xen hypervisor.\u000aIt supports both privileged (dom0) and unprivileged (domU) operation.
p1250
ss(Vbuild
p1251
g203
tp1252
(dp1253
Vvdso
p1254
I01
sVimage-file
p1255
Vvmlinux
p1256
ss(Vbuild
p1257
g127
NV686-pae
p1258
tp1259
(dp1260
Vdebug-info
p1261
I01
ss(g4
g347
g6
tp1262
(dp1263
g9
(lp1264
Vpowerpc
p1265
aVpowerpc-smp
p1266
aVpowerpc64
p1267
asg13
I01
ss(Vdescription
p1268
g33
NVloongson-3
p1269
tp1270
(dp1271
Vhardware-long
p1272
VLoongson 3A or 3B based systems (e.g. from Loongson or Lemote)
p1273
sVhardware
p1274
VLoongson 3A/3B
p1275
ss(g4
g621
g6
tp1276
(dp1277
g9
(lp1278
Vm68k
p1279
asg13
I01
ss(Vdescription
p1280
g33
NV4kc-malta
p1281
tp1282
(dp1283
Vhardware-long
p1284
VMIPS Malta boards
p1285
sVhardware
p1286
VMIPS Malta
p1287
ss(Vabi
p1288
Ng855
tp1289
(dp1290
Vignore-changes
p1291
(lp1292
V*
p1293
asstp1294
Rp1295
.