ccopy_reg
_reconstructor
p0
(cdebian_linux.config
ConfigCore
p1
c__builtin__
dict
p2
(dp3
(Vrelations
p4
Vamd64
p5
tp6
(dp7
Vheaders%gcc-5
p8
Vlinux-compiler-gcc-5-x86
p9
ss(Vimage
p10
Vmips
p11
NV4kc-malta
p12
tp13
(dp14
Vconfigs
p15
(lp16
Vkernelarch-mips/config.4kc-malta
p17
ass(Vdescription
p18
Vmipsel
p19
NV5kc-malta
p20
tp21
(dp22
Vhardware
p23
VMIPS Malta (64-bit)
p24
sVhardware-long
p25
VMIPS Malta boards (64-bit)
p26
ss(Vrelations
p27
Varmel
p28
tp29
(dp30
Vheaders%gcc-4.9
p31
Vlinux-compiler-gcc-4.9-arm
p32
ss(Vbase
p33
Vsparc
p34
tp35
(dp36
Vkernel-arch
p37
Vsparc
p38
sVfeaturesets
p39
(lp40
ss(Vbuild
p41
Valpha
p42
tp43
(dp44
Vimage-file
p45
Varch/alpha/boot/vmlinux.gz
p46
ss(Vimage
p47
g11
NV5kc-malta
p48
tp49
(dp50
Vconfigs
p51
(lp52
Vkernelarch-mips/config.5kc-malta
p53
ass(Vbuild
p54
g11
tp55
(dp56
Vimage-file
p57
Vvmlinux
p58
ss(Vdescription
p59
g11
NVocteon
p60
tp61
(dp62
Vhardware
p63
VOcteon
p64
sVhardware-long
p65
VCavium Networks Octeon
p66
ss(Vbase
p67
g19
tp68
(dp69
Vkernel-arch
p70
Vmips
p71
sVfeaturesets
p72
(lp73
Vnone
p74
ass(Vdescription
p75
Vppc64
p76
NVpowerpc64
p77
tp78
(dp79
Vhardware
p80
V64-bit PowerPC
p81
ss(Vbuild
p82
g19
tp83
(dp84
Vimage-file
p85
Vvmlinux
p86
ss(Vdescription
p87
g19
NVloongson-3
p88
tp89
(dp90
Vhardware
p91
VLoongson 3A/3B
p92
sVhardware-long
p93
VLoongson 3A or 3B based systems (e.g. from Loongson or Lemote)
p94
ss(Vimage
p95
Vmips64el
p96
NVocteon
p97
tp98
(dp99
Vconfigs
p100
(lp101
Vkernelarch-mips/config.octeon
p102
ass(Vdescription
p103
g28
NVversatile
p104
tp105
(dp106
Vhardware
p107
VVersatile
p108
sVhardware-long
p109
VVersatile systems (PB, AB, Qemu)
p110
ss(Vdescription
p111
Vs390x
p112
NVs390x
p113
tp114
(dp115
Vhardware
p116
VIBM zSeries
p117
ss(Vabi
p118
Vhppa
p119
tp120
(dp121
Vignore-changes
p122
(lp123
Vdrm_dp_*
p124
ass(Vbase
p125
g119
NVparisc64-smp
p126
tp127
(dp128
Vcflags
p129
V-fno-cse-follow-jumps
p130
sVoverride-host-type
p131
Vhppa64-linux-gnu
p132
ss(Vimage
p133
Vi386
p134
tp135
(dp136
Vbootloaders
p137
(lp138
Vgrub-pc
p139
aVextlinux
p140
asVinstall-stem
p141
Vvmlinuz
p142
sVbreaks
p143
Vxserver-xorg-input-vmmouse (<< 1:13.0.99)
p144
sVconfigs
p145
(lp146
ss(Vdescription
p147
Vppc64el
p148
NVpowerpc64le
p149
tp150
(dp151
Vhardware
p152
VLittle-endian 64-bit PowerPC
p153
ss(Vrelations
p154
g112
tp155
(dp156
Vheaders%gcc-4.9
p157
Vlinux-compiler-gcc-4.9-s390
p158
ss(Vdescription
p159
Varm64
p160
NVarm64
p161
tp162
(dp163
Vhardware
p164
V64-bit ARMv8 machines
p165
ss(Vimage
p166
Varmhf
p167
NVarmmp-lpae
p168
tp169
(dp170
Vconfigs
p171
(lp172
Varmhf/config.armmp
p173
aVarmhf/config.lpae
p174
ass(Vdescription
p175
g11
NV4kc-malta
p176
tp177
(dp178
Vhardware
p179
VMIPS Malta
p180
sVhardware-long
p181
VMIPS Malta boards
p182
ss(Vbase
p183
Vm68k
p184
tp185
(dp186
Vcflags
p187
V-ffreestanding
p188
sVcompiler
p189
Vgcc-4.8
p190
sg72
(lp191
g74
asVkernel-arch
p192
Vm68k
p193
ss(Vbase
p194
Vor1k
p195
tp196
(dp197
Vkernel-arch
p198
Vopenrisc
p199
sVfeaturesets
p200
(lp201
ss(Vimage
p202
g112
tp203
(dp204
Vbootloaders
p205
(lp206
Vs390-tools
p207
asVinstall-stem
p208
Vvmlinuz
p209
sVconfigs
p210
(lp211
ss(Vbuild
p212
g134
NV686-pae
p213
tp214
(dp215
Vdebug-info
p216
I01
ss(Vdescription
p217
g167
NVarmmp
p218
tp219
(dp220
Vhardware
p221
VARMv7 multiplatform compatible SoCs
p222
sVhardware-long
p223
VARMv7 multiplatform kernel. See\u000ahttps://wiki.debian.org/DebianKernel/ARMMP for details of supported\u000aplatforms
p224
ss(Vbase
p225
g42
g74
tp226
(dp227
Vflavours
p228
(lp229
Valpha-generic
p230
aValpha-smp
p231
asVimplicit-flavour
p232
I01
ss(Vdescription
p233
Vpowerpc
p234
NVpowerpc64
p235
tp236
(dp237
Vhardware
p238
V64-bit PowerPC
p239
ss(Vbuild
p240
g167
NVrpi2
p241
tp242
(dp243
Vimage-file
p244
Varch/arm/boot/zImagerpdt
p245
ss(Vrelations
p246
tp247
(dp248
Vgcc-5
p249
Vgcc-5 <!stage1>
p250
sVinitramfs-tools
p251
Vinitramfs-tools (>= 0.110~)
p252
sVgcc-4.8
p253
Vgcc-4.8 <!stage1>
p254
sVgcc-4.9
p255
Vgcc-4.9 <!stage1>
p256
sVinitramfs-fallback
p257
Vlinux-initramfs-tool
p258
ss(Vdescription
p259
g234
NVpowerpc-smp
p260
tp261
(dp262
Vhardware
p263
Vmultiprocessor 32-bit PowerPC
p264
ss(Vdescription
p265
Vsparc64
p266
NVsparc64
p267
tp268
(dp269
Vhardware
p270
Vuniprocessor 64-bit UltraSPARC
p271
ss(g225
g112
g74
tp272
(dp273
g228
(lp274
Vs390x
p275
asg232
I01
ss(Vbase
p276
Vsh4
p277
tp278
(dp279
Vkernel-arch
p280
Vsh
p281
sg72
(lp282
g74
ass(Vbuild
p283
g134
tp284
(dp285
Vimage-file
p286
Varch/x86/boot/bzImage
p287
sVvdso
p288
I01
ss(g225
g119
g74
tp289
(dp290
g228
(lp291
Vparisc
p292
aVparisc64-smp
p293
asg232
I01
ss(Vbase
p294
g76
tp295
(dp296
Vkernel-arch
p297
Vpowerpc
p298
sg72
(lp299
g74
ass(Vbuild
p300
g167
tp301
(dp302
Vimage-file
p303
Varch/arm/boot/zImage
p304
sVvdso
p305
I01
ss(Vrelations
p306
g119
tp307
(dp308
Vgcc-4.9
p309
Vgcc-4.9 <!stage1>, binutils-hppa64 <!stage1>, gcc-4.9-hppa64 <!stage1>
p310
ss(Vimage
p311
g19
NVloongson-3
p312
tp313
(dp314
Vconfigs
p315
(lp316
Vkernelarch-mips/config.loongson-3
p317
ass(Vbase
p318
g234
tp319
(dp320
Vkernel-arch
p321
Vpowerpc
p322
sg72
(lp323
g74
ass(Vdescription
p324
g96
NVloongson-3
p325
tp326
(dp327
Vhardware
p328
VLoongson 3A/3B
p329
sVhardware-long
p330
VLoongson 3A or 3B based systems (e.g. from Loongson or Lemote)
p331
ss(Vbase
p332
Vmips64
p333
tp334
(dp335
Vkernel-arch
p336
Vmips
p337
sg72
(lp338
g74
ass(Vbase
p339
NVrt
p340
tp341
(dp342
Venabled
p343
I01
ss(Vimage
p344
g266
NVsparc64-smp
p345
tp346
(dp347
Vconfigs
p348
(lp349
Vkernelarch-sparc/config-smp
p350
ass(Vxen
p351
g5
Vnone
p352
Vamd64
p353
tp354
(dp355
Vflavours
p356
(lp357
Vamd64
p358
ass(Vdescription
p359
g167
NVarmmp-lpae
p360
tp361
(dp362
Vhardware
p363
VARMv7 multiplatform compatible SoCs supporting LPAE
p364
sVhardware-long
p365
VARMv7 multiplatform kernel supporting LPAE. See\u000ahttps://wiki.debian.org/DebianKernel/ARMMP for details of supported\u000aplatforms.
p366
ss(Vimage
p367
g333
tp368
(dp369
Vinstall-stem
p370
Vvmlinux
p371
ss(Vdescription
p372
g5
NVamd64
p373
tp374
(dp375
Vhardware
p376
V64-bit PCs
p377
sVhardware-long
p378
VPCs with AMD64, Intel 64 or VIA Nano processors
p379
ss(Vbuild
p380
g277
tp381
(dp382
Vimage-file
p383
Varch/sh/boot/zImage
p384
ss(g225
g333
g74
tp385
(dp386
g228
(lp387
V5kc-malta
p388
aVocteon
p389
asg232
I01
ss(Vdescription
p390
g19
NV4kc-malta
p391
tp392
(dp393
Vhardware
p394
VMIPS Malta
p395
sVhardware-long
p396
VMIPS Malta boards
p397
ss(Vimage
p398
g333
NV5kc-malta
p399
tp400
(dp401
Vconfigs
p402
(lp403
Vkernelarch-mips/config.5kc-malta
p404
ass(Vdescription
p405
g134
NV686
p406
tp407
(dp408
Vhardware
p409
Volder PCs
p410
sVhardware-long
p411
VPCs with one or more processors not supporting PAE
p412
ss(g225
g148
g74
tp413
(dp414
g228
(lp415
Vpowerpc64le
p416
asg232
I01
ss(Vrelations
p417
g167
tp418
(dp419
Vheaders%gcc-4.9
p420
Vlinux-compiler-gcc-4.9-arm
p421
ss(Vbase
p422
g119
tp423
(dp424
Vkernel-arch
p425
Vparisc
p426
sg72
(lp427
g74
ass(Vdescription
p428
g167
NVrpi2
p429
tp430
(dp431
Vhardware
p432
VRaspberryPI2
p433
sVhardware-long
p434
VRaspberry PI 2
p435
ss(Vdescription
p436
g134
Vnone
p437
V686-pae
p438
tp439
(dp440
Vparts
p441
(lp442
Vxen
p443
ass(Vimage
p444
g148
tp445
(dp446
Vinstall-stem
p447
Vvmlinux
p448
sVsuggests
p449
Vmkvmlinuz
p450
sVconfigs
p451
(lp452
ss(Vimage
p453
g160
NVarm64
p454
tp455
(dp456
s(Vdescription
p457
g167
NVrpi
p458
tp459
(dp460
Vhardware
p461
VRaspberryPI
p462
sVhardware-long
p463
VRaspberry PI
p464
ss(g225
g184
g74
tp465
(dp466
g228
(lp467
Vm68k
p468
asg232
I01
ss(g225
g96
g74
tp469
(dp470
g228
(lp471
V5kc-malta
p472
aVloongson-3
p473
aVocteon
p474
asg232
I01
ss(Vimage
p475
g333
NVocteon
p476
tp477
(dp478
Vconfigs
p479
(lp480
Vkernelarch-mips/config.octeon
p481
ass(Vbuild
p482
Vpowerpcspe
p483
tp484
(dp485
Vimage-file
p486
Vvmlinux
p487
sVvdso
p488
I01
ss(Vdescription
p489
g19
NVloongson-2e
p490
tp491
(dp492
Vhardware
p493
VLoongson 2E
p494
sVhardware-long
p495
VLemote Loongson 2E systems
p496
ss(Vimage
p497
g277
NVsh7785lcr
p498
tp499
(dp500
Vcheck-size
p501
L4194304L
sVrecommends
p502
Vu-boot-tools
p503
ss(Vimage
p504
g277
tp505
(dp506
Vinstall-stem
p507
Vvmlinuz
p508
sVsuggests
p509
Vfdutils
p510
ss(Vbuild
p511
g160
tp512
(dp513
Vimage-file
p514
Varch/arm64/boot/Image
p515
sVdebug-info
p516
I01
sVvdso
p517
I01
ss(Vimage
p518
g167
NVrpi2
p519
tp520
(dp521
Vconfigs
p522
(lp523
Varmhf/config.rpix
p524
aVarmhf/config.rpi2
p525
ass(Vdescription
p526
g5
g352
Vamd64
p527
tp528
(dp529
Vparts
p530
(lp531
Vxen
p532
ass(Vbuild
p533
g112
tp534
(dp535
Vimage-file
p536
Varch/s390/boot/image
p537
sVvdso
p538
I01
ss(Vbase
p539
g160
Vnone
p540
tp541
(dp542
Vflavours
p543
(lp544
Varm64
p545
ass(Vbuild
p546
g184
tp547
(dp548
Vimage-file
p549
Vvmlinux.gz
p550
ss(Vbase
p551
g96
tp552
(dp553
Vkernel-arch
p554
Vmips
p555
sg72
(lp556
g74
ass(Vdescription
p557
g42
NValpha-generic
p558
tp559
(dp560
Vhardware
p561
VAlpha
p562
sVhardware-long
p563
VDEC Alpha systems with extended kernel start address (Wildfire, Titan, Marvel)
p564
ss(Vbuild
p565
g96
tp566
(dp567
Vimage-file
p568
Vvmlinux
p569
ss(Vimage
p570
g234
NVpowerpc-smp
p571
tp572
(dp573
Vconfigs
p574
(lp575
Vpowerpc/config.powerpc
p576
aVpowerpc/config.powerpc-smp
p577
ass(Vimage
p578
g11
NVocteon
p579
tp580
(dp581
Vconfigs
p582
(lp583
Vkernelarch-mips/config.octeon
p584
ass(Vdescription
p585
g277
NVsh7785lcr
p586
tp587
(dp588
Vhardware
p589
Vsh7785lcr
p590
sVhardware-long
p591
VRenesas SH7785 reference board
p592
ss(Vimage
p593
g28
tp594
(dp595
Vinstall-stem
p596
Vvmlinuz
p597
sVsuggests
p598
Vfdutils
p599
sVconfigs
p600
(lp601
Vkernelarch-arm/config
p602
aVarmel/config
p603
ass(Vimage
p604
g167
NVrpi
p605
tp606
(dp607
Vconfigs
p608
(lp609
Varmhf/config.rpix
p610
aVarmhf/config.test
p611
aVarmhf/config.rpi
p612
ass(Vpackages
p613
tp614
(dp615
Vlibc-dev
p616
I00
ss(Vimage
p617
g119
tp618
(dp619
Vinstall-stem
p620
Vvmlinux
p621
sVsuggests
p622
Vpalo
p623
ss(Vbuild
p624
g148
tp625
(dp626
Vimage-file
p627
Vvmlinux
p628
sVvdso
p629
I01
ss(Vbase
p630
g28
tp631
(dp632
Vkernel-arch
p633
Varm
p634
sg72
(lp635
g74
ass(Vabi
p636
tp637
(dp638
Vignore-changes
p639
(lp640
V__scm_destroy
p641
aV__scm_send
p642
aVscm_detach_fds
p643
aVscm_fp_dup
p644
aVefivar_validate
p645
aVget_thermal_instance
p646
aVinet_csk_reqsk_queue_add
p647
aVtcp_req_err
p648
aVmodule:drivers/gpu/drm/drm_kms_helper
p649
aVmodule:drivers/hv/hv_vmbus
p650
aVmodule:drivers/md/dm-snapshot
p651
aVmodule:drivers/mmc/host/sdhci
p652
aVmodule:drivers/mmc/host/sdhci*
p653
aVmodule:net/ceph/libceph
p654
asVabiname
p655
V1
p656
ss(Vdescription
p657
g96
NVocteon
p658
tp659
(dp660
Vhardware
p661
VOcteon
p662
sVhardware-long
p663
VCavium Networks Octeon
p664
ss(Vimage
p665
g266
tp666
(dp667
Vinstall-stem
p668
Vvmlinuz
p669
sVsuggests
p670
Vsilo, fdutils
p671
sVconfigs
p672
(lp673
ss(Vimage
p674
g160
tp675
(dp676
Vinstall-stem
p677
Vvmlinuz
p678
ss(g225
g234
g74
tp679
(dp680
g228
(lp681
Vpowerpc
p682
aVpowerpc-smp
p683
aVpowerpc64
p684
asg232
I01
ss(Vdescription
p685
g277
NVsh7751r
p686
tp687
(dp688
Vhardware
p689
Vsh7751r
p690
sVhardware-long
p691
VRenesas SH7751R R2D plus board
p692
ss(g225
g483
g74
tp693
(dp694
g228
(lp695
Vpowerpcspe
p696
asg232
I01
ss(Vimage
p697
g96
tp698
(dp699
Vinstall-stem
p700
Vvmlinux
p701
ss(Vimage
p702
g483
tp703
(dp704
Vinstall-stem
p705
Vvmlinux
p706
sVsuggests
p707
Vmkvmlinuz
p708
ss(Vbuild
p709
g5
tp710
(dp711
Vimage-file
p712
Varch/x86/boot/bzImage
p713
sVdebug-info
p714
I01
sVvdso
p715
I01
ss(Vimage
p716
g42
tp717
(dp718
Vinstall-stem
p719
Vvmlinuz
p720
sVsuggests
p721
Vaboot, fdutils
p722
ss(Vbuild
p723
g167
NVrpi
p724
tp725
(dp726
Vimage-file
p727
Varch/arm/boot/zImagerpdt
p728
ss(Vbase
p729
g167
tp730
(dp731
Vkernel-arch
p732
Varm
p733
sg72
(lp734
g74
ass(Vbase
p735
g5
Vrt
p736
tp737
(dp738
Vflavours
p739
(lp740
Vamd64
p741
ass(g225
g28
g74
tp742
(dp743
g228
(lp744
Vmarvell
p745
aVversatile
p746
asg232
I01
ss(Vimage
p747
g19
NVloongson-2e
p748
tp749
(dp750
Vconfigs
p751
(lp752
Vkernelarch-mips/config.loongson-2e
p753
ass(Vabi
p754
g112
tp755
(dp756
Vignore-changes
p757
(lp758
Vmodule:arch/s390/kvm/kvm
p759
ass(Vbuild
p760
g76
tp761
(dp762
Vimage-file
p763
Vvmlinux
p764
sVvdso
p765
I01
ss(Vbase
p766
g11
tp767
(dp768
Vkernel-arch
p769
Vmips
p770
sg72
(lp771
g74
ass(Vimage
p772
g96
NVloongson-3
p773
tp774
(dp775
Vconfigs
p776
(lp777
Vkernelarch-mips/config.loongson-3
p778
ass(Vrelations
p779
g134
tp780
(dp781
Vheaders%gcc-5
p782
Vlinux-compiler-gcc-5-x86
p783
ss(Vdescription
p784
g19
NVloongson-2f
p785
tp786
(dp787
Vhardware
p788
VLoongson 2F
p789
sVhardware-long
p790
VLemote Loongson 2F systems
p791
ss(Vdescription
p792
g119
NVparisc64-smp
p793
tp794
(dp795
Vhardware
p796
Vmultiprocessor 64-bit PA-RISC
p797
sVhardware-long
p798
VHP PA-RISC 64-bit SMP systems with support for more than 4 GB RAM
p799
ss(Vimage
p800
g148
NVpowerpc64le
p801
tp802
(dp803
Vconfigs
p804
(lp805
Vkernelarch-powerpc/config-arch-64
p806
aVkernelarch-powerpc/config-arch-64-le
p807
ass(Vdescription
p808
g266
NVsparc64-smp
p809
tp810
(dp811
Vhardware
p812
Vmultiprocessor 64-bit UltraSPARC
p813
ss(Vbuild
p814
g112
NVs390x
p815
tp816
(dp817
Vdebug-info
p818
I01
ss(Vbase
p819
Vx32
p820
tp821
(dp822
Vkernel-arch
p823
Vx86
p824
sVfeaturesets
p825
(lp826
ss(Vimage
p827
g96
NV5kc-malta
p828
tp829
(dp830
Vconfigs
p831
(lp832
Vkernelarch-mips/config.5kc-malta
p833
ass(Vbase
p834
g134
g437
tp835
(dp836
Vflavours
p837
(lp838
V686
p839
aV686-pae
p840
ass(Vbase
p841
g5
g352
tp842
(dp843
Vflavours
p844
(lp845
Vamd64
p846
ass(g225
g266
g74
tp847
(dp848
g228
(lp849
Vsparc64
p850
aVsparc64-smp
p851
asg232
I01
ss(Vbuild
p852
g234
tp853
(dp854
Vimage-file
p855
Vvmlinux
p856
sVvdso
p857
I01
ss(Vdescription
p858
tp859
(dp860
Vpart-long-xen
p861
VThis kernel also runs on a Xen hypervisor.\u000aIt supports both privileged (dom0) and unprivileged (domU) operation.
p862
sVpart-long-up
p863
VThis kernel is not suitable for SMP (multi-processor,\u000amulti-core or hyper-threaded) systems.
p864
ss(Vbase
p865
g112
tp866
(dp867
Vkernel-arch
p868
Vs390
p869
sg72
(lp870
g74
ass(g225
g11
g74
tp871
(dp872
g228
(lp873
V4kc-malta
p874
aV5kc-malta
p875
aVocteon
p876
asg232
I01
ss(Vdescription
p877
g42
NValpha-smp
p878
tp879
(dp880
Vhardware
p881
VAlpha SMP
p882
sVhardware-long
p883
VDEC Alpha SMP systems with extended kernel start address (Wildfire, Titan, Marvel)
p884
ss(Vimage
p885
g11
tp886
(dp887
Vinstall-stem
p888
Vvmlinux
p889
ss(Vimage
p890
g76
NVpowerpc64
p891
tp892
(dp893
Vconfigs
p894
(lp895
Vkernelarch-powerpc/config-arch-64
p896
aVkernelarch-powerpc/config-arch-64-be
p897
ass(Vdescription
p898
g28
NVmarvell
p899
tp900
(dp901
Vhardware
p902
VMarvell Kirkwood/Orion
p903
sVhardware-long
p904
VMarvell Kirkwood based systems (SheevaPlug, QNAP TS-119/TS-219, etc)\u000aand Orion 5181, 5182 and 5281 based systems (QNAP TS-109/TS-209, etc)
p905
ss(Vbase
p906
g134
tp907
(dp908
Vkernel-arch
p909
Vx86
p910
sVcompiler
p911
Vgcc-5
p912
sVfeaturesets
p913
(lp914
Vnone
p915
aVrt
p916
ass(Vimage
p917
g19
NV4kc-malta
p918
tp919
(dp920
Vconfigs
p921
(lp922
Vkernelarch-mips/config.4kc-malta
p923
ass(Vimage
p924
g5
NVamd64
p925
tp926
(dp927
Vconfigs
p928
(lp929
Vkernelarch-x86/config-arch-64
p930
ass(g225
g19
g74
tp931
(dp932
g228
(lp933
V4kc-malta
p934
aV5kc-malta
p935
aVloongson-2e
p936
aVloongson-2f
p937
aVloongson-3
p938
asg232
I01
ss(Vimage
p939
g167
tp940
(dp941
Vinstall-stem
p942
Vvmlinuz
p943
sVsuggests
p944
Vfdutils
p945
sVconfigs
p946
(lp947
Vkernelarch-arm/config
p948
ass(Vdescription
p949
g96
NV5kc-malta
p950
tp951
(dp952
Vhardware
p953
VMIPS Malta
p954
sVhardware-long
p955
VMIPS Malta boards
p956
ss(Vbase
p957
g42
tp958
(dp959
Vkernel-arch
p960
Valpha
p961
sg72
(lp962
g74
ass(Vbase
p963
g266
tp964
(dp965
Vkernel-arch
p966
Vsparc
p967
sg72
(lp968
g74
ass(Vbuild
p969
g266
tp970
(dp971
Vimage-file
p972
Varch/sparc/boot/zImage
p973
ss(Vbase
p974
g483
tp975
(dp976
Vkernel-arch
p977
Vpowerpc
p978
sg72
(lp979
g74
ass(Vbuild
p980
g28
tp981
(dp982
Vimage-file
p983
Varch/arm/boot/zImage
p984
ss(Vimage
p985
g234
tp986
(dp987
Vinstall-stem
p988
Vvmlinux
p989
sVsuggests
p990
Vmkvmlinuz
p991
sVconfigs
p992
(lp993
ss(Vimage
p994
g19
NVloongson-2f
p995
tp996
(dp997
Vconfigs
p998
(lp999
Vkernelarch-mips/config.loongson-2f
p1000
asVrecommends
p1001
Vlibc6-loongson2f
p1002
ss(Vdescription
p1003
g119
NVparisc
p1004
tp1005
(dp1006
Vhardware
p1007
V32-bit PA-RISC
p1008
sVhardware-long
p1009
VHP PA-RISC 32-bit systems with max 4 GB RAM
p1010
ss(Vimage
p1011
g76
tp1012
(dp1013
Vinstall-stem
p1014
Vvmlinux
p1015
sVsuggests
p1016
Vmkvmlinuz
p1017
sVconfigs
p1018
(lp1019
ss(Vbuild
p1020
g333
tp1021
(dp1022
Vimage-file
p1023
Vvmlinux
p1024
ss(Vimage
p1025
g112
NVs390x
p1026
tp1027
(dp1028
Vconfigs
p1029
(lp1030
Vkernelarch-s390/config-arch-64
p1031
ass(Vdescription
p1032
g483
tp1033
(dp1034
Vhardware
p1035
V32-bit PowerPC with SPE (instead of AltiVec) with SMP support
p1036
ss(Vimage
p1037
g234
NVpowerpc64
p1038
tp1039
(dp1040
Vconfigs
p1041
(lp1042
Vkernelarch-powerpc/config-arch-64
p1043
aVkernelarch-powerpc/config-arch-64-be
p1044
ass(g225
g277
g74
tp1045
(dp1046
g228
(lp1047
Vsh7751r
p1048
aVsh7785lcr
p1049
asg232
I01
ss(Vimage
p1050
g134
NV686-pae
p1051
tp1052
(dp1053
Vrecommends
p1054
Vlibc6-i686
p1055
sVconfigs
p1056
(lp1057
Vkernelarch-x86/config-arch-32
p1058
aVi386/config.686-pae
p1059
ass(Vdescription
p1060
g11
NV5kc-malta
p1061
tp1062
(dp1063
Vhardware
p1064
VMIPS Malta (64-bit)
p1065
sVhardware-long
p1066
VMIPS Malta boards (64-bit)
p1067
ss(Vdescription
p1068
NVrt
p1069
tp1070
(dp1071
Vparts
p1072
(lp1073
Vrt
p1074
asVpart-short-rt
p1075
VPREEMPT_RT
p1076
sVpart-long-rt
p1077
VThis kernel includes the PREEMPT_RT realtime patch set.
p1078
ss(Vbase
p1079
tp1080
(dp1081
Vcompiler
p1082
Vgcc-4.9
p1083
sVfeaturesets
p1084
(lp1085
Vnone
p1086
aVrt
p1087
asVarches
p1088
(lp1089
Valpha
p1090
aVamd64
p1091
aVarm64
p1092
aVarmel
p1093
aVarmhf
p1094
aVhppa
p1095
aVi386
p1096
aVm68k
p1097
aVmips
p1098
aVmipsel
p1099
aVmips64
p1100
aVmips64el
p1101
aVor1k
p1102
aVpowerpc
p1103
aVpowerpcspe
p1104
aVppc64
p1105
aVppc64el
p1106
aVs390
p1107
aVs390x
p1108
aVsh4
p1109
aVsparc
p1110
aVsparc64
p1111
aVx32
p1112
ass(Vimage
p1113
g19
NV5kc-malta
p1114
tp1115
(dp1116
Vconfigs
p1117
(lp1118
Vkernelarch-mips/config.5kc-malta
p1119
ass(Vdescription
p1120
g184
NVm68k
p1121
tp1122
(dp1123
Vhardware
p1124
VMotorola MC68020+ family
p1125
ss(Vimage
p1126
g28
NVmarvell
p1127
tp1128
(dp1129
Vcheck-size
p1130
L2097080L
sVcheck-size-with-dtb
p1131
I01
sVbreaks
p1132
Vflash-kernel (<< 3.57~)
p1133
sVrecommends
p1134
Vu-boot-tools
p1135
ss(Vabi
p1136
Ng1069
tp1137
(dp1138
Vignore-changes
p1139
(lp1140
V*
p1141
ass(g225
g76
g74
tp1142
(dp1143
g228
(lp1144
Vpowerpc64
p1145
asg232
I01
ss(Vdescription
p1146
g134
NV686-pae
p1147
tp1148
(dp1149
Vparts
p1150
(lp1151
Vpae
p1152
asVhardware
p1153
Vmodern PCs
p1154
sVhardware-long
p1155
VPCs with one or more processors supporting PAE
p1156
ss(Vdescription
p1157
g333
NVocteon
p1158
tp1159
(dp1160
Vhardware
p1161
VOcteon
p1162
sVhardware-long
p1163
VCavium Networks Octeon
p1164
ss(Vdescription
p1165
g234
NVpowerpc
p1166
tp1167
(dp1168
Vhardware
p1169
Vuniprocessor 32-bit PowerPC
p1170
ss(Vbase
p1171
g5
tp1172
(dp1173
Vkernel-arch
p1174
Vx86
p1175
sVcompiler
p1176
Vgcc-5
p1177
sVfeaturesets
p1178
(lp1179
Vnone
p1180
aVrt
p1181
ass(Vimage
p1182
g184
tp1183
(dp1184
Vinstall-stem
p1185
Vvmlinuz
p1186
sVsuggests
p1187
Vvmelilo, fdutils
p1188
ss(Vbase
p1189
g148
tp1190
(dp1191
Vkernel-arch
p1192
Vpowerpc
p1193
sg72
(lp1194
g74
ass(Vimage
p1195
g19
tp1196
(dp1197
Vinstall-stem
p1198
Vvmlinux
p1199
ss(Vbase
p1200
g134
Vrt
p1201
tp1202
(dp1203
Vflavours
p1204
(lp1205
V686-pae
p1206
ass(Vimage
p1207
tp1208
(dp1209
Vinitramfs-generators
p1210
(lp1211
Vinitramfs-tools
p1212
aVinitramfs-fallback
p1213
ass(Vimage
p1214
g5
tp1215
(dp1216
Vbootloaders
p1217
(lp1218
Vgrub-pc
p1219
aVgrub-efi
p1220
aVextlinux
p1221
asVinstall-stem
p1222
Vvmlinuz
p1223
sVbreaks
p1224
Vxserver-xorg-input-vmmouse (<< 1:13.0.99)
p1225
sVconfigs
p1226
(lp1227
ss(g225
g167
g74
tp1228
(dp1229
g228
(lp1230
Vrpi
p1231
aVrpi2
p1232
asg232
I01
ss(Vimage
p1233
g266
NVsparc64
p1234
tp1235
(dp1236
Vconfigs
p1237
(lp1238
Vkernelarch-sparc/config-up
p1239
ass(Vdescription
p1240
g134
tp1241
(dp1242
Vpart-long-pae
p1243
VThis kernel requires PAE (Physical Address Extension).\u000aThis feature is supported by the Intel Pentium Pro/II/III/4/4M/D, Xeon,\u000aCore and Atom; AMD Geode NX, Athlon (K7), Duron, Opteron, Sempron,\u000aTurion or Phenom; Transmeta Efficeon; VIA C7; and some other processors.
p1244
ss(Vdescription
p1245
g333
NV5kc-malta
p1246
tp1247
(dp1248
Vhardware
p1249
VMIPS Malta
p1250
sVhardware-long
p1251
VMIPS Malta boards
p1252
ss(Vbuild
p1253
g119
tp1254
(dp1255
Vimage-file
p1256
Vvmlinux
p1257
ss(Vbase
p1258
g160
tp1259
(dp1260
Vkernel-arch
p1261
Varm64
p1262
sVfeaturesets
p1263
(lp1264
Vnone
p1265
ass(Vversion
p1266
tp1267
(dp1268
Vabiname_base
p1269
V4.4.0
p1270
sVupstream
p1271
V4.4
p1272
sVsource
p1273
V4.4.6-1+rpi7
p1274
sVabiname
p1275
V4.4.0-1
p1276
ss(Vimage
p1277
g134
NV686
p1278
tp1279
(dp1280
Vrecommends
p1281
Vlibc6-i686
p1282
sVconfigs
p1283
(lp1284
Vkernelarch-x86/config-arch-32
p1285
aVi386/config.686
p1286
ass(Vbase
p1287
Vs390
p1288
tp1289
(dp1290
Vkernel-arch
p1291
Vs390
p1292
sVfeaturesets
p1293
(lp1294
sstp1295
Rp1296
.