ccopy_reg
_reconstructor
p0
(cdebian_linux.config
ConfigCore
p1
c__builtin__
dict
p2
(dp3
(Vimage
p4
Vsparc64
p5
NVsparc64
p6
tp7
(dp8
Vconfigs
p9
(lp10
Vkernelarch-sparc/config-up
p11
ass(Vabi
p12
Vs390x
p13
tp14
(dp15
Vignore-changes
p16
(lp17
Vmodule:arch/s390/kvm/kvm
p18
ass(Vimage
p19
Vmipsel
p20
tp21
(dp22
Vinstall-stem
p23
Vvmlinux
p24
ss(Vbuild
p25
Vppc64el
p26
tp27
(dp28
Vvdso
p29
I01
sVimage-file
p30
Vvmlinux
p31
ss(Vxen
p32
Vamd64
p33
Vnone
p34
Vamd64
p35
tp36
(dp37
Vflavours
p38
(lp39
Vamd64
p40
ass(Vrelations
p41
Varmhf
p42
tp43
(dp44
Vheaders%gcc-4.9
p45
Vlinux-compiler-gcc-4.9-arm
p46
ss(Vbuild
p47
g13
tp48
(dp49
Vvdso
p50
I01
sVimage-file
p51
Varch/s390/boot/image
p52
ss(Vbase
p53
Vor1k
p54
tp55
(dp56
Vkernel-arch
p57
Vopenrisc
p58
sVfeaturesets
p59
(lp60
ss(Vimage
p61
Vmips64
p62
NVocteon
p63
tp64
(dp65
Vconfigs
p66
(lp67
Vkernelarch-mips/config.octeon
p68
ass(Vbase
p69
Vi386
p70
Vnone
p71
tp72
(dp73
Vflavours
p74
(lp75
V686
p76
aV686-pae
p77
ass(Vbase
p78
Vppc64
p79
Vnone
p80
tp81
(dp82
Vimplicit-flavour
p83
I01
sVflavours
p84
(lp85
Vpowerpc64
p86
ass(Vdescription
p87
g20
NVloongson-2e
p88
tp89
(dp90
Vhardware-long
p91
VLemote Loongson 2E systems
p92
sVhardware
p93
VLoongson 2E
p94
ss(Vimage
p95
Vhppa
p96
tp97
(dp98
Vinstall-stem
p99
Vvmlinux
p100
sVsuggests
p101
Vpalo
p102
ss(Vbase
p103
g96
NVparisc64-smp
p104
tp105
(dp106
Voverride-host-type
p107
Vhppa64-linux-gnu
p108
sVcflags
p109
V-fno-cse-follow-jumps
p110
ss(Vdescription
p111
g79
NVpowerpc64
p112
tp113
(dp114
Vhardware
p115
V64-bit PowerPC
p116
ss(Vbuild
p117
Vsh4
p118
tp119
(dp120
Vimage-file
p121
Varch/sh/boot/zImage
p122
ss(Vimage
p123
g42
tp124
(dp125
Vinstall-stem
p126
Vvmlinuz
p127
sVsuggests
p128
Vfdutils
p129
sVconfigs
p130
(lp131
Vkernelarch-arm/config
p132
ass(Vimage
p133
g33
NVamd64
p134
tp135
(dp136
Vconfigs
p137
(lp138
Vkernelarch-x86/config-arch-64
p139
ass(Vdescription
p140
g42
NVrpi2
p141
tp142
(dp143
Vhardware-long
p144
VRaspberry PI 2
p145
sVhardware
p146
VRaspberryPI2
p147
ss(Vimage
p148
g20
NVloongson-3
p149
tp150
(dp151
Vconfigs
p152
(lp153
Vkernelarch-mips/config.loongson-3
p154
ass(Vdescription
p155
g20
NV5kc-malta
p156
tp157
(dp158
Vhardware-long
p159
VMIPS Malta boards (64-bit)
p160
sVhardware
p161
VMIPS Malta (64-bit)
p162
ss(Vimage
p163
Vmips
p164
NV4kc-malta
p165
tp166
(dp167
Vconfigs
p168
(lp169
Vkernelarch-mips/config.4kc-malta
p170
ass(Vimage
p171
Varmel
p172
tp173
(dp174
Vinstall-stem
p175
Vvmlinuz
p176
sVsuggests
p177
Vfdutils
p178
sVconfigs
p179
(lp180
Vkernelarch-arm/config
p181
aVarmel/config
p182
ass(Vimage
p183
g70
NV686-pae
p184
tp185
(dp186
Vrecommends
p187
Vlibc6-i686
p188
sVconfigs
p189
(lp190
Vkernelarch-x86/config-arch-32
p191
aVi386/config.686-pae
p192
ass(Vimage
p193
g20
NV5kc-malta
p194
tp195
(dp196
Vconfigs
p197
(lp198
Vkernelarch-mips/config.5kc-malta
p199
ass(Vimage
p200
g164
NVocteon
p201
tp202
(dp203
Vconfigs
p204
(lp205
Vkernelarch-mips/config.octeon
p206
ass(Vimage
p207
Vmips64el
p208
NVloongson-3
p209
tp210
(dp211
Vconfigs
p212
(lp213
Vkernelarch-mips/config.loongson-3
p214
ass(Vbase
p215
g33
Vrt
p216
tp217
(dp218
Vflavours
p219
(lp220
Vamd64
p221
ass(Vimage
p222
g42
NVrpi
p223
tp224
(dp225
Vconfigs
p226
(lp227
Varmhf/config.rpix
p228
aVarmhf/config.test
p229
aVarmhf/config.rpi
p230
ass(Vbase
p231
Vpowerpc
p232
tp233
(dp234
Vkernel-arch
p235
Vpowerpc
p236
sVfeaturesets
p237
(lp238
g80
ass(Vabi
p239
tp240
(dp241
Vabiname
p242
V1
p243
sVignore-changes
p244
(lp245
V__scm_destroy
p246
aV__scm_send
p247
aVscm_detach_fds
p248
aVscm_fp_dup
p249
aVefivar_validate
p250
aVget_thermal_instance
p251
aVinet_csk_reqsk_queue_add
p252
aVtcp_req_err
p253
aVmodule:drivers/gpu/drm/drm_kms_helper
p254
aVmodule:drivers/hv/hv_vmbus
p255
aVmodule:drivers/md/dm-snapshot
p256
aVmodule:drivers/mmc/host/sdhci
p257
aVmodule:drivers/mmc/host/sdhci*
p258
aVmodule:net/ceph/libceph
p259
ass(Vdescription
p260
g70
g71
V686-pae
p261
tp262
(dp263
Vparts
p264
(lp265
Vxen
p266
ass(Vbuild
p267
g62
tp268
(dp269
Vimage-file
p270
Vvmlinux
p271
ss(Vdescription
p272
g208
NVloongson-3
p273
tp274
(dp275
Vhardware-long
p276
VLoongson 3A or 3B based systems (e.g. from Loongson or Lemote)
p277
sVhardware
p278
VLoongson 3A/3B
p279
ss(g78
g232
g80
tp280
(dp281
g83
I01
sg84
(lp282
Vpowerpc
p283
aVpowerpc-smp
p284
aVpowerpc64
p285
ass(Vdescription
p286
g208
NVocteon
p287
tp288
(dp289
Vhardware-long
p290
VCavium Networks Octeon
p291
sVhardware
p292
VOcteon
p293
ss(Vrelations
p294
g172
tp295
(dp296
Vheaders%gcc-4.9
p297
Vlinux-compiler-gcc-4.9-arm
p298
ss(Vabi
p299
g96
tp300
(dp301
Vignore-changes
p302
(lp303
Vdrm_dp_*
p304
ass(Vimage
p305
g164
tp306
(dp307
Vinstall-stem
p308
Vvmlinux
p309
ss(Vdescription
p310
g232
NVpowerpc-smp
p311
tp312
(dp313
Vhardware
p314
Vmultiprocessor 32-bit PowerPC
p315
ss(Vdescription
p316
g232
NVpowerpc64
p317
tp318
(dp319
Vhardware
p320
V64-bit PowerPC
p321
ss(Vbuild
p322
g79
tp323
(dp324
Vvdso
p325
I01
sVimage-file
p326
Vvmlinux
p327
ss(Vbuild
p328
g42
NVrpi2
p329
tp330
(dp331
Vimage-file
p332
Varch/arm/boot/zImagerpdt
p333
ss(g78
Vm68k
p334
g80
tp335
(dp336
g83
I01
sg84
(lp337
Vm68k
p338
ass(Vbuild
p339
g232
tp340
(dp341
Vvdso
p342
I01
sVimage-file
p343
Vvmlinux
p344
ss(Vimage
p345
g70
NV686
p346
tp347
(dp348
Vrecommends
p349
Vlibc6-i686
p350
sVconfigs
p351
(lp352
Vkernelarch-x86/config-arch-32
p353
aVi386/config.686
p354
ass(Vbase
p355
g70
tp356
(dp357
Vcompiler
p358
Vgcc-5
p359
sVkernel-arch
p360
Vx86
p361
sVfeaturesets
p362
(lp363
Vnone
p364
aVrt
p365
ass(Vbuild
p366
g70
tp367
(dp368
Vvdso
p369
I01
sVimage-file
p370
Varch/x86/boot/bzImage
p371
ss(Vdescription
p372
g118
NVsh7751r
p373
tp374
(dp375
Vhardware-long
p376
VRenesas SH7751R R2D plus board
p377
sVhardware
p378
Vsh7751r
p379
ss(Vimage
p380
g118
NVsh7785lcr
p381
tp382
(dp383
Vrecommends
p384
Vu-boot-tools
p385
sVcheck-size
p386
L4194304L
ss(Vbase
p387
Valpha
p388
tp389
(dp390
Vkernel-arch
p391
Valpha
p392
sg237
(lp393
g80
ass(Vimage
p394
Vpowerpcspe
p395
tp396
(dp397
Vinstall-stem
p398
Vvmlinux
p399
sVsuggests
p400
Vmkvmlinuz
p401
ss(Vbuild
p402
Varm64
p403
tp404
(dp405
Vdebug-info
p406
I01
sVvdso
p407
I01
sVimage-file
p408
Varch/arm64/boot/Image
p409
ss(g78
g164
g80
tp410
(dp411
g83
I01
sg84
(lp412
V4kc-malta
p413
aV5kc-malta
p414
aVocteon
p415
ass(Vdescription
p416
g118
NVsh7785lcr
p417
tp418
(dp419
Vhardware-long
p420
VRenesas SH7785 reference board
p421
sVhardware
p422
Vsh7785lcr
p423
ss(Vdescription
p424
g164
NV5kc-malta
p425
tp426
(dp427
Vhardware-long
p428
VMIPS Malta boards (64-bit)
p429
sVhardware
p430
VMIPS Malta (64-bit)
p431
ss(Vbase
p432
g20
tp433
(dp434
Vkernel-arch
p435
Vmips
p436
sg237
(lp437
g80
ass(Vimage
p438
g20
NV4kc-malta
p439
tp440
(dp441
Vconfigs
p442
(lp443
Vkernelarch-mips/config.4kc-malta
p444
ass(Vimage
p445
g13
NVs390x
p446
tp447
(dp448
Vconfigs
p449
(lp450
Vkernelarch-s390/config-arch-64
p451
ass(Vimage
p452
g208
tp453
(dp454
Vinstall-stem
p455
Vvmlinux
p456
ss(Vimage
p457
g164
NV5kc-malta
p458
tp459
(dp460
Vconfigs
p461
(lp462
Vkernelarch-mips/config.5kc-malta
p463
ass(Vdescription
p464
tp465
(dp466
Vpart-long-up
p467
VThis kernel is not suitable for SMP (multi-processor,\u000amulti-core or hyper-threaded) systems.
p468
sVpart-long-xen
p469
VThis kernel also runs on a Xen hypervisor.\u000aIt supports both privileged (dom0) and unprivileged (domU) operation.
p470
ss(g78
g62
g80
tp471
(dp472
g83
I01
sg84
(lp473
V5kc-malta
p474
aVocteon
p475
ass(g78
g42
g80
tp476
(dp477
g83
I01
sg84
(lp478
Vrpi
p479
aVrpi2
p480
ass(g78
g13
g80
tp481
(dp482
g83
I01
sg84
(lp483
Vs390x
p484
ass(Vdescription
p485
g172
NVmarvell
p486
tp487
(dp488
Vhardware-long
p489
VMarvell Kirkwood based systems (SheevaPlug, QNAP TS-119/TS-219, etc)\u000aand Orion 5181, 5182 and 5281 based systems (QNAP TS-109/TS-209, etc)
p490
sVhardware
p491
VMarvell Kirkwood/Orion
p492
ss(Vbase
p493
g26
tp494
(dp495
Vkernel-arch
p496
Vpowerpc
p497
sg237
(lp498
g80
ass(Vimage
p499
g26
NVpowerpc64le
p500
tp501
(dp502
Vconfigs
p503
(lp504
Vkernelarch-powerpc/config-arch-64
p505
aVkernelarch-powerpc/config-arch-64-le
p506
ass(Vimage
p507
g33
tp508
(dp509
Vinstall-stem
p510
Vvmlinuz
p511
sVbreaks
p512
Vxserver-xorg-input-vmmouse (<< 1:13.0.99)
p513
sVconfigs
p514
(lp515
sVbootloaders
p516
(lp517
Vgrub-pc
p518
aVgrub-efi
p519
aVextlinux
p520
ass(Vimage
p521
tp522
(dp523
Vinitramfs-generators
p524
(lp525
Vinitramfs-tools
p526
aVinitramfs-fallback
p527
ass(Vimage
p528
g79
NVpowerpc64
p529
tp530
(dp531
Vconfigs
p532
(lp533
Vkernelarch-powerpc/config-arch-64
p534
aVkernelarch-powerpc/config-arch-64-be
p535
ass(Vrelations
p536
g33
tp537
(dp538
Vheaders%gcc-5
p539
Vlinux-compiler-gcc-5-x86
p540
ss(Vbase
p541
g5
tp542
(dp543
Vkernel-arch
p544
Vsparc
p545
sg237
(lp546
g80
ass(Vimage
p547
g5
NVsparc64-smp
p548
tp549
(dp550
Vconfigs
p551
(lp552
Vkernelarch-sparc/config-smp
p553
ass(Vdescription
p554
g70
NV686-pae
p555
tp556
(dp557
Vparts
p558
(lp559
Vpae
p560
asVhardware-long
p561
VPCs with one or more processors supporting PAE
p562
sVhardware
p563
Vmodern PCs
p564
ss(Vdescription
p565
g5
NVsparc64-smp
p566
tp567
(dp568
Vhardware
p569
Vmultiprocessor 64-bit UltraSPARC
p570
ss(g78
g118
g80
tp571
(dp572
g83
I01
sg84
(lp573
Vsh7751r
p574
aVsh7785lcr
p575
ass(Vbuild
p576
g70
NV686-pae
p577
tp578
(dp579
Vdebug-info
p580
I01
ss(Vimage
p581
g232
tp582
(dp583
Vinstall-stem
p584
Vvmlinux
p585
sVsuggests
p586
Vmkvmlinuz
p587
sVconfigs
p588
(lp589
ss(Vbase
p590
g403
tp591
(dp592
Vkernel-arch
p593
Varm64
p594
sVfeaturesets
p595
(lp596
Vnone
p597
ass(g78
g208
g80
tp598
(dp599
g83
I01
sg84
(lp600
V5kc-malta
p601
aVloongson-3
p602
aVocteon
p603
ass(Vimage
p604
g62
NV5kc-malta
p605
tp606
(dp607
Vconfigs
p608
(lp609
Vkernelarch-mips/config.5kc-malta
p610
ass(Vimage
p611
g5
tp612
(dp613
Vinstall-stem
p614
Vvmlinuz
p615
sVsuggests
p616
Vsilo, fdutils
p617
sVconfigs
p618
(lp619
ss(Vdescription
p620
g172
NVversatile
p621
tp622
(dp623
Vhardware-long
p624
VVersatile systems (PB, AB, Qemu)
p625
sVhardware
p626
VVersatile
p627
ss(Vbuild
p628
g172
tp629
(dp630
Vimage-file
p631
Varch/arm/boot/zImage
p632
ss(Vbuild
p633
g164
tp634
(dp635
Vimage-file
p636
Vvmlinux
p637
ss(Vbase
p638
Vs390
p639
tp640
(dp641
Vkernel-arch
p642
Vs390
p643
sVfeaturesets
p644
(lp645
ss(Vdescription
p646
g62
NV5kc-malta
p647
tp648
(dp649
Vhardware-long
p650
VMIPS Malta boards
p651
sVhardware
p652
VMIPS Malta
p653
ss(Vrelations
p654
g13
tp655
(dp656
Vheaders%gcc-4.9
p657
Vlinux-compiler-gcc-4.9-s390
p658
ss(Vdescription
p659
g96
NVparisc
p660
tp661
(dp662
Vhardware-long
p663
VHP PA-RISC 32-bit systems with max 4 GB RAM
p664
sVhardware
p665
V32-bit PA-RISC
p666
ss(Vimage
p667
g79
tp668
(dp669
Vinstall-stem
p670
Vvmlinux
p671
sVsuggests
p672
Vmkvmlinuz
p673
sVconfigs
p674
(lp675
ss(Vimage
p676
g208
NVocteon
p677
tp678
(dp679
Vconfigs
p680
(lp681
Vkernelarch-mips/config.octeon
p682
ass(Vdescription
p683
g62
NVocteon
p684
tp685
(dp686
Vhardware-long
p687
VCavium Networks Octeon
p688
sVhardware
p689
VOcteon
p690
ss(g78
g388
g80
tp691
(dp692
g83
I01
sg84
(lp693
Valpha-generic
p694
aValpha-smp
p695
ass(Vbase
p696
g33
tp697
(dp698
Vcompiler
p699
Vgcc-5
p700
sVkernel-arch
p701
Vx86
p702
sVfeaturesets
p703
(lp704
Vnone
p705
aVrt
p706
ass(Vrelations
p707
g96
tp708
(dp709
Vgcc-4.9
p710
Vgcc-4.9 <!stage1>, binutils-hppa64 <!stage1>, gcc-4.9-hppa64 <!stage1>
p711
ss(Vimage
p712
g42
NVrpi2
p713
tp714
(dp715
Vconfigs
p716
(lp717
Varmhf/config.rpix
p718
aVarmhf/config.rpi2
p719
ass(Vdescription
p720
g26
NVpowerpc64le
p721
tp722
(dp723
Vhardware
p724
VLittle-endian 64-bit PowerPC
p725
ss(Vdescription
p726
g403
NVarm64
p727
tp728
(dp729
Vhardware
p730
V64-bit ARMv8 machines
p731
ss(Vbase
p732
g208
tp733
(dp734
Vkernel-arch
p735
Vmips
p736
sg237
(lp737
g80
ass(g78
g395
g80
tp738
(dp739
g83
I01
sg84
(lp740
Vpowerpcspe
p741
ass(Vimage
p742
g42
NVarmmp-lpae
p743
tp744
(dp745
Vconfigs
p746
(lp747
Varmhf/config.armmp
p748
aVarmhf/config.lpae
p749
ass(Vbase
p750
g79
tp751
(dp752
Vkernel-arch
p753
Vpowerpc
p754
sg237
(lp755
g80
ass(Vdescription
p756
g42
NVrpi
p757
tp758
(dp759
Vhardware-long
p760
VRaspberry PI
p761
sVhardware
p762
VRaspberryPI
p763
ss(Vimage
p764
g232
NVpowerpc-smp
p765
tp766
(dp767
Vconfigs
p768
(lp769
Vpowerpc/config.powerpc
p770
aVpowerpc/config.powerpc-smp
p771
ass(Vbuild
p772
g334
tp773
(dp774
Vimage-file
p775
Vvmlinux.gz
p776
ss(Vdescription
p777
g388
NValpha-smp
p778
tp779
(dp780
Vhardware-long
p781
VDEC Alpha SMP systems with extended kernel start address (Wildfire, Titan, Marvel)
p782
sVhardware
p783
VAlpha SMP
p784
ss(Vdescription
p785
g20
NVloongson-2f
p786
tp787
(dp788
Vhardware-long
p789
VLemote Loongson 2F systems
p790
sVhardware
p791
VLoongson 2F
p792
ss(Vdescription
p793
g70
tp794
(dp795
Vpart-long-pae
p796
VThis kernel requires PAE (Physical Address Extension).\u000aThis feature is supported by the Intel Pentium Pro/II/III/4/4M/D, Xeon,\u000aCore and Atom; AMD Geode NX, Athlon (K7), Duron, Opteron, Sempron,\u000aTurion or Phenom; Transmeta Efficeon; VIA C7; and some other processors.
p797
ss(Vbase
p798
tp799
(dp800
Vcompiler
p801
Vgcc-4.9
p802
sVarches
p803
(lp804
Valpha
p805
aVamd64
p806
aVarm64
p807
aVarmel
p808
aVarmhf
p809
aVhppa
p810
aVi386
p811
aVm68k
p812
aVmips
p813
aVmipsel
p814
aVmips64
p815
aVmips64el
p816
aVor1k
p817
aVpowerpc
p818
aVpowerpcspe
p819
aVppc64
p820
aVppc64el
p821
aVs390
p822
aVs390x
p823
aVsh4
p824
aVsparc
p825
aVsparc64
p826
aVx32
p827
asVfeaturesets
p828
(lp829
Vnone
p830
aVrt
p831
ass(Vdescription
p832
g42
NVarmmp
p833
tp834
(dp835
Vhardware-long
p836
VARMv7 multiplatform kernel. See\u000ahttps://wiki.debian.org/DebianKernel/ARMMP for details of supported\u000aplatforms
p837
sVhardware
p838
VARMv7 multiplatform compatible SoCs
p839
ss(Vdescription
p840
g334
NVm68k
p841
tp842
(dp843
Vhardware
p844
VMotorola MC68020+ family
p845
ss(Vimage
p846
g13
tp847
(dp848
Vinstall-stem
p849
Vvmlinuz
p850
sVconfigs
p851
(lp852
sVbootloaders
p853
(lp854
Vs390-tools
p855
ass(Vdescription
p856
g20
NV4kc-malta
p857
tp858
(dp859
Vhardware-long
p860
VMIPS Malta boards
p861
sVhardware
p862
VMIPS Malta
p863
ss(Vimage
p864
g403
tp865
(dp866
Vinstall-stem
p867
Vvmlinuz
p868
ss(Vbase
p869
g403
Vnone
p870
tp871
(dp872
Vflavours
p873
(lp874
Varm64
p875
ass(Vbuild
p876
g33
tp877
(dp878
Vdebug-info
p879
I01
sVvdso
p880
I01
sVimage-file
p881
Varch/x86/boot/bzImage
p882
ss(Vdescription
p883
g395
tp884
(dp885
Vhardware
p886
V32-bit PowerPC with SPE (instead of AltiVec) with SMP support
p887
ss(Vimage
p888
g388
tp889
(dp890
Vinstall-stem
p891
Vvmlinuz
p892
sVsuggests
p893
Vaboot, fdutils
p894
ss(Vbuild
p895
g388
tp896
(dp897
Vimage-file
p898
Varch/alpha/boot/vmlinux.gz
p899
ss(Vimage
p900
g334
tp901
(dp902
Vinstall-stem
p903
Vvmlinuz
p904
sVsuggests
p905
Vvmelilo, fdutils
p906
ss(Vdescription
p907
g33
NVamd64
p908
tp909
(dp910
Vhardware-long
p911
VPCs with AMD64, Intel 64 or VIA Nano processors
p912
sVhardware
p913
V64-bit PCs
p914
ss(Vbuild
p915
g208
tp916
(dp917
Vimage-file
p918
Vvmlinux
p919
ss(Vdescription
p920
g13
NVs390x
p921
tp922
(dp923
Vhardware
p924
VIBM zSeries
p925
ss(Vdescription
p926
g164
NV4kc-malta
p927
tp928
(dp929
Vhardware-long
p930
VMIPS Malta boards
p931
sVhardware
p932
VMIPS Malta
p933
ss(Vbase
p934
g118
tp935
(dp936
Vkernel-arch
p937
Vsh
p938
sg237
(lp939
g80
ass(Vbuild
p940
g42
tp941
(dp942
Vvdso
p943
I01
sVimage-file
p944
Varch/arm/boot/zImage
p945
ss(Vimage
p946
g20
NVloongson-2f
p947
tp948
(dp949
Vrecommends
p950
Vlibc6-loongson2f
p951
sVconfigs
p952
(lp953
Vkernelarch-mips/config.loongson-2f
p954
ass(Vbuild
p955
g20
tp956
(dp957
Vimage-file
p958
Vvmlinux
p959
ss(Vimage
p960
g26
tp961
(dp962
Vinstall-stem
p963
Vvmlinux
p964
sVsuggests
p965
Vmkvmlinuz
p966
sVconfigs
p967
(lp968
ss(g78
g172
g80
tp969
(dp970
g83
I01
sg84
(lp971
Vmarvell
p972
aVversatile
p973
ass(Vimage
p974
g232
NVpowerpc64
p975
tp976
(dp977
Vconfigs
p978
(lp979
Vkernelarch-powerpc/config-arch-64
p980
aVkernelarch-powerpc/config-arch-64-be
p981
ass(Vimage
p982
g172
NVmarvell
p983
tp984
(dp985
Vrecommends
p986
Vu-boot-tools
p987
sVbreaks
p988
Vflash-kernel (<< 3.57~)
p989
sVcheck-size
p990
L2097080L
sVcheck-size-with-dtb
p991
I01
ss(Vbase
p992
Vsparc
p993
tp994
(dp995
Vkernel-arch
p996
Vsparc
p997
sVfeaturesets
p998
(lp999
ss(Vdescription
p1000
g33
g34
Vamd64
p1001
tp1002
(dp1003
Vparts
p1004
(lp1005
Vxen
p1006
ass(Vbase
p1007
NVrt
p1008
tp1009
(dp1010
Venabled
p1011
I01
ss(Vdescription
p1012
g5
NVsparc64
p1013
tp1014
(dp1015
Vhardware
p1016
Vuniprocessor 64-bit UltraSPARC
p1017
ss(Vdescription
p1018
NVrt
p1019
tp1020
(dp1021
Vpart-long-rt
p1022
VThis kernel includes the PREEMPT_RT realtime patch set.
p1023
sVparts
p1024
(lp1025
Vrt
p1026
asVpart-short-rt
p1027
VPREEMPT_RT
p1028
ss(Vbuild
p1029
g96
tp1030
(dp1031
Vimage-file
p1032
Vvmlinux
p1033
ss(Vimage
p1034
g20
NVloongson-2e
p1035
tp1036
(dp1037
Vconfigs
p1038
(lp1039
Vkernelarch-mips/config.loongson-2e
p1040
ass(Vbase
p1041
g395
tp1042
(dp1043
Vkernel-arch
p1044
Vpowerpc
p1045
sg237
(lp1046
g80
ass(Vimage
p1047
g118
tp1048
(dp1049
Vinstall-stem
p1050
Vvmlinuz
p1051
sVsuggests
p1052
Vfdutils
p1053
ss(Vbase
p1054
Vx32
p1055
tp1056
(dp1057
Vkernel-arch
p1058
Vx86
p1059
sVfeaturesets
p1060
(lp1061
ss(Vpackages
p1062
tp1063
(dp1064
Vlibc-dev
p1065
I00
ss(Vdescription
p1066
g164
NVocteon
p1067
tp1068
(dp1069
Vhardware-long
p1070
VCavium Networks Octeon
p1071
sVhardware
p1072
VOcteon
p1073
ss(Vbase
p1074
g334
tp1075
(dp1076
Vcompiler
p1077
Vgcc-4.8
p1078
sVkernel-arch
p1079
Vm68k
p1080
sVcflags
p1081
V-ffreestanding
p1082
sg237
(lp1083
g80
ass(Vbase
p1084
g172
tp1085
(dp1086
Vkernel-arch
p1087
Varm
p1088
sg237
(lp1089
g80
ass(Vbuild
p1090
g5
tp1091
(dp1092
Vimage-file
p1093
Varch/sparc/boot/zImage
p1094
ss(Vbase
p1095
g62
tp1096
(dp1097
Vkernel-arch
p1098
Vmips
p1099
sg237
(lp1100
g80
ass(Vimage
p1101
g70
tp1102
(dp1103
Vinstall-stem
p1104
Vvmlinuz
p1105
sVbreaks
p1106
Vxserver-xorg-input-vmmouse (<< 1:13.0.99)
p1107
sVconfigs
p1108
(lp1109
sVbootloaders
p1110
(lp1111
Vgrub-pc
p1112
aVextlinux
p1113
ass(g78
g20
g80
tp1114
(dp1115
g83
I01
sg84
(lp1116
V4kc-malta
p1117
aV5kc-malta
p1118
aVloongson-2e
p1119
aVloongson-2f
p1120
aVloongson-3
p1121
ass(Vimage
p1122
g208
NV5kc-malta
p1123
tp1124
(dp1125
Vconfigs
p1126
(lp1127
Vkernelarch-mips/config.5kc-malta
p1128
ass(Vbase
p1129
g13
tp1130
(dp1131
Vkernel-arch
p1132
Vs390
p1133
sg237
(lp1134
g80
ass(Vbase
p1135
g42
tp1136
(dp1137
Vkernel-arch
p1138
Varm
p1139
sg237
(lp1140
g80
ass(Vimage
p1141
g62
tp1142
(dp1143
Vinstall-stem
p1144
Vvmlinux
p1145
ss(Vdescription
p1146
g96
NVparisc64-smp
p1147
tp1148
(dp1149
Vhardware-long
p1150
VHP PA-RISC 64-bit SMP systems with support for more than 4 GB RAM
p1151
sVhardware
p1152
Vmultiprocessor 64-bit PA-RISC
p1153
ss(Vbase
p1154
g33
g34
tp1155
(dp1156
Vflavours
p1157
(lp1158
Vamd64
p1159
ass(g78
g5
g80
tp1160
(dp1161
g83
I01
sg84
(lp1162
Vsparc64
p1163
aVsparc64-smp
p1164
ass(Vbase
p1165
g164
tp1166
(dp1167
Vkernel-arch
p1168
Vmips
p1169
sg237
(lp1170
g80
ass(Vdescription
p1171
g42
NVarmmp-lpae
p1172
tp1173
(dp1174
Vhardware-long
p1175
VARMv7 multiplatform kernel supporting LPAE. See\u000ahttps://wiki.debian.org/DebianKernel/ARMMP for details of supported\u000aplatforms.
p1176
sVhardware
p1177
VARMv7 multiplatform compatible SoCs supporting LPAE
p1178
ss(Vbase
p1179
g96
tp1180
(dp1181
Vkernel-arch
p1182
Vparisc
p1183
sg237
(lp1184
g80
ass(Vbuild
p1185
g13
NVs390x
p1186
tp1187
(dp1188
Vdebug-info
p1189
I01
ss(Vabi
p1190
Ng1019
tp1191
(dp1192
Vignore-changes
p1193
(lp1194
V*
p1195
ass(g78
g26
g80
tp1196
(dp1197
g83
I01
sg84
(lp1198
Vpowerpc64le
p1199
ass(Vdescription
p1200
g232
NVpowerpc
p1201
tp1202
(dp1203
Vhardware
p1204
Vuniprocessor 32-bit PowerPC
p1205
ss(Vversion
p1206
tp1207
(dp1208
Vsource
p1209
V4.4.6-1+rpi11
p1210
sVabiname
p1211
V4.4.0-1
p1212
sVupstream
p1213
V4.4
p1214
sVabiname_base
p1215
V4.4.0
p1216
ss(g78
g96
g80
tp1217
(dp1218
g83
I01
sg84
(lp1219
Vparisc
p1220
aVparisc64-smp
p1221
ass(Vdescription
p1222
g388
NValpha-generic
p1223
tp1224
(dp1225
Vhardware-long
p1226
VDEC Alpha systems with extended kernel start address (Wildfire, Titan, Marvel)
p1227
sVhardware
p1228
VAlpha
p1229
ss(Vimage
p1230
g403
NVarm64
p1231
tp1232
(dp1233
s(Vrelations
p1234
g70
tp1235
(dp1236
Vheaders%gcc-5
p1237
Vlinux-compiler-gcc-5-x86
p1238
ss(Vrelations
p1239
tp1240
(dp1241
Vgcc-4.9
p1242
Vgcc-4.9 <!stage1>
p1243
sVgcc-4.8
p1244
Vgcc-4.8 <!stage1>
p1245
sVinitramfs-tools
p1246
Vinitramfs-tools (>= 0.110~)
p1247
sVgcc-5
p1248
Vgcc-5 <!stage1>
p1249
sVinitramfs-fallback
p1250
Vlinux-initramfs-tool
p1251
ss(Vbase
p1252
g70
Vrt
p1253
tp1254
(dp1255
Vflavours
p1256
(lp1257
V686-pae
p1258
ass(Vbuild
p1259
g395
tp1260
(dp1261
Vvdso
p1262
I01
sVimage-file
p1263
Vvmlinux
p1264
ss(Vbuild
p1265
g42
NVrpi
p1266
tp1267
(dp1268
Vimage-file
p1269
Varch/arm/boot/zImagerpdt
p1270
ss(Vdescription
p1271
g20
NVloongson-3
p1272
tp1273
(dp1274
Vhardware-long
p1275
VLoongson 3A or 3B based systems (e.g. from Loongson or Lemote)
p1276
sVhardware
p1277
VLoongson 3A/3B
p1278
ss(Vdescription
p1279
g70
NV686
p1280
tp1281
(dp1282
Vhardware-long
p1283
VPCs with one or more processors not supporting PAE
p1284
sVhardware
p1285
Volder PCs
p1286
ss(Vdescription
p1287
g208
NV5kc-malta
p1288
tp1289
(dp1290
Vhardware-long
p1291
VMIPS Malta boards
p1292
sVhardware
p1293
VMIPS Malta
p1294
sstp1295
Rp1296
.