ccopy_reg
_reconstructor
p0
(cdebian_linux.config
ConfigCore
p1
c__builtin__
dict
p2
(dp3
(Vbase
p4
Vamd64
p5
Vrt
p6
tp7
(dp8
Vflavours
p9
(lp10
Vamd64
p11
ass(Vimage
p12
Vmipsel
p13
NV4kc-malta
p14
tp15
(dp16
Vconfigs
p17
(lp18
Vkernelarch-mips/config.4kc-malta
p19
ass(Vbuild
p20
Vsparc64
p21
tp22
(dp23
Vimage-file
p24
Varch/sparc/boot/zImage
p25
ss(Vimage
p26
g5
NVamd64
p27
tp28
(dp29
Vconfigs
p30
(lp31
Vkernelarch-x86/config-arch-64
p32
ass(Vbase
p33
Vpowerpc
p34
tp35
(dp36
Vfeaturesets
p37
(lp38
Vnone
p39
asVkernel-arch
p40
Vpowerpc
p41
ss(Vdescription
p42
Varmhf
p43
NVarmmp
p44
tp45
(dp46
Vhardware-long
p47
VARMv7 multiplatform kernel. See\u000ahttps://wiki.debian.org/DebianKernel/ARMMP for details of supported\u000aplatforms
p48
sVhardware
p49
VARMv7 multiplatform compatible SoCs
p50
ss(Vdescription
p51
Vppc64
p52
NVpowerpc64
p53
tp54
(dp55
Vhardware
p56
V64-bit PowerPC
p57
ss(Vrelations
p58
Varmel
p59
tp60
(dp61
Vheaders%gcc-4.9
p62
Vlinux-compiler-gcc-4.9-arm
p63
ss(Vimage
p64
Vmips
p65
tp66
(dp67
Vinstall-stem
p68
Vvmlinux
p69
ss(Vimage
p70
Vpowerpcspe
p71
tp72
(dp73
Vsuggests
p74
Vmkvmlinuz
p75
sVinstall-stem
p76
Vvmlinux
p77
ss(Vimage
p78
g34
tp79
(dp80
Vsuggests
p81
Vmkvmlinuz
p82
sVinstall-stem
p83
Vvmlinux
p84
sVconfigs
p85
(lp86
ss(Vimage
p87
g43
NVrpi2
p88
tp89
(dp90
Vconfigs
p91
(lp92
Varmhf/config.rpix
p93
aVarmhf/config.rpi2
p94
ass(Vbuild
p95
Vs390x
p96
NVs390x
p97
tp98
(dp99
Vdebug-info
p100
I01
ss(Vimage
p101
Varm64
p102
NVarm64
p103
tp104
(dp105
s(Vimage
p106
Vmips64
p107
NVocteon
p108
tp109
(dp110
Vconfigs
p111
(lp112
Vkernelarch-mips/config.octeon
p113
ass(Vbase
p114
g107
tp115
(dp116
g37
(lp117
g39
asVkernel-arch
p118
Vmips
p119
ss(Vbuild
p120
g59
tp121
(dp122
Vimage-file
p123
Varch/arm/boot/zImage
p124
ss(Vbase
p125
g65
g39
tp126
(dp127
Vflavours
p128
(lp129
V4kc-malta
p130
aV5kc-malta
p131
aVocteon
p132
asVimplicit-flavour
p133
I01
ss(Vbuild
p134
g71
tp135
(dp136
Vimage-file
p137
Vvmlinux
p138
sVvdso
p139
I01
ss(Vimage
p140
Vmips64el
p141
NVloongson-3
p142
tp143
(dp144
Vconfigs
p145
(lp146
Vkernelarch-mips/config.loongson-3
p147
ass(Vimage
p148
Vppc64el
p149
NVpowerpc64le
p150
tp151
(dp152
Vconfigs
p153
(lp154
Vkernelarch-powerpc/config-arch-64
p155
aVkernelarch-powerpc/config-arch-64-le
p156
ass(g125
g71
g39
tp157
(dp158
g128
(lp159
Vpowerpcspe
p160
asg133
I01
ss(Vbuild
p161
g5
tp162
(dp163
Vimage-file
p164
Varch/x86/boot/bzImage
p165
sVdebug-info
p166
I01
sVvdso
p167
I01
ss(Vdescription
p168
Vi386
p169
NV686
p170
tp171
(dp172
Vhardware-long
p173
VPCs with one or more processors not supporting PAE
p174
sVhardware
p175
Volder PCs
p176
ss(g125
g59
g39
tp177
(dp178
g128
(lp179
Vmarvell
p180
aVversatile
p181
asg133
I01
ss(Vdescription
p182
g43
NVrpi
p183
tp184
(dp185
Vhardware-long
p186
VRaspberry PI
p187
sVhardware
p188
VRaspberryPI
p189
ss(Vbase
p190
Vm68k
p191
tp192
(dp193
g37
(lp194
g39
asVcompiler
p195
Vgcc-4.8
p196
sVcflags
p197
V-ffreestanding
p198
sVkernel-arch
p199
Vm68k
p200
ss(Vbase
p201
g43
tp202
(dp203
g37
(lp204
g39
asVkernel-arch
p205
Varm
p206
ss(Vbase
p207
NVrt
p208
tp209
(dp210
Venabled
p211
I01
ss(Vdescription
p212
g13
NVloongson-2e
p213
tp214
(dp215
Vhardware-long
p216
VLemote Loongson 2E systems
p217
sVhardware
p218
VLoongson 2E
p219
ss(Vdescription
p220
Vhppa
p221
NVparisc
p222
tp223
(dp224
Vhardware-long
p225
VHP PA-RISC 32-bit systems with max 4 GB RAM
p226
sVhardware
p227
V32-bit PA-RISC
p228
ss(Vdescription
p229
g43
NVrpi2
p230
tp231
(dp232
Vhardware-long
p233
VRaspberry PI 2
p234
sVhardware
p235
VRaspberryPI2
p236
ss(Vimage
p237
g141
NV5kc-malta
p238
tp239
(dp240
Vconfigs
p241
(lp242
Vkernelarch-mips/config.5kc-malta
p243
ass(Vdescription
p244
g141
NVocteon
p245
tp246
(dp247
Vhardware-long
p248
VCavium Networks Octeon
p249
sVhardware
p250
VOcteon
p251
ss(g125
g43
g39
tp252
(dp253
g128
(lp254
Vrpi
p255
aVrpi2
p256
asg133
I01
ss(Vbase
p257
Vor1k
p258
tp259
(dp260
Vfeaturesets
p261
(lp262
sVkernel-arch
p263
Vopenrisc
p264
ss(Vimage
p265
g13
NVloongson-2e
p266
tp267
(dp268
Vconfigs
p269
(lp270
Vkernelarch-mips/config.loongson-2e
p271
ass(Vbuild
p272
Vsh4
p273
tp274
(dp275
Vimage-file
p276
Varch/sh/boot/zImage
p277
ss(Vimage
p278
g169
NV686
p279
tp280
(dp281
Vconfigs
p282
(lp283
Vkernelarch-x86/config-arch-32
p284
aVi386/config.686
p285
asVrecommends
p286
Vlibc6-i686
p287
ss(Vimage
p288
g43
NVrpi
p289
tp290
(dp291
Vconfigs
p292
(lp293
Varmhf/config.rpix
p294
aVarmhf/config.rpi
p295
ass(Vbase
p296
g221
tp297
(dp298
g37
(lp299
g39
asVkernel-arch
p300
Vparisc
p301
ss(Vimage
p302
g65
NV4kc-malta
p303
tp304
(dp305
Vconfigs
p306
(lp307
Vkernelarch-mips/config.4kc-malta
p308
ass(g125
g107
g39
tp309
(dp310
g128
(lp311
V5kc-malta
p312
aVocteon
p313
asg133
I01
ss(Vdescription
p314
g169
tp315
(dp316
Vpart-long-pae
p317
VThis kernel requires PAE (Physical Address Extension).\u000aThis feature is supported by the Intel Pentium Pro/II/III/4/4M/D, Xeon,\u000aCore and Atom; AMD Geode NX, Athlon (K7), Duron, Opteron, Sempron,\u000aTurion or Phenom; Transmeta Efficeon; VIA C7; and some other processors.
p318
ss(Vbase
p319
g71
tp320
(dp321
g37
(lp322
g39
asVkernel-arch
p323
Vpowerpc
p324
ss(Vimage
p325
g221
tp326
(dp327
Vsuggests
p328
Vpalo
p329
sVinstall-stem
p330
Vvmlinux
p331
ss(Vimage
p332
g149
tp333
(dp334
Vsuggests
p335
Vmkvmlinuz
p336
sVinstall-stem
p337
Vvmlinux
p338
sVconfigs
p339
(lp340
ss(Vimage
p341
g273
tp342
(dp343
Vsuggests
p344
Vfdutils
p345
sVinstall-stem
p346
Vvmlinuz
p347
ss(g125
g141
g39
tp348
(dp349
g128
(lp350
V5kc-malta
p351
aVloongson-3
p352
aVocteon
p353
asg133
I01
ss(Vimage
p354
g96
NVs390x
p355
tp356
(dp357
Vconfigs
p358
(lp359
Vkernelarch-s390/config-arch-64
p360
ass(Vdescription
p361
g71
tp362
(dp363
Vhardware
p364
V32-bit PowerPC with SPE (instead of AltiVec) with SMP support
p365
ss(Vbuild
p366
g102
tp367
(dp368
Vimage-file
p369
Varch/arm64/boot/Image
p370
sVdebug-info
p371
I01
sVvdso
p372
I01
ss(g125
g52
g39
tp373
(dp374
g128
(lp375
Vpowerpc64
p376
asg133
I01
ss(Vimage
p377
g13
NV5kc-malta
p378
tp379
(dp380
Vconfigs
p381
(lp382
Vkernelarch-mips/config.5kc-malta
p383
ass(Vbuild
p384
g34
tp385
(dp386
Vimage-file
p387
Vvmlinux
p388
sVvdso
p389
I01
ss(Vbase
p390
Valpha
p391
tp392
(dp393
g37
(lp394
g39
asVkernel-arch
p395
Valpha
p396
ss(Vbase
p397
Vs390
p398
tp399
(dp400
Vfeaturesets
p401
(lp402
sVkernel-arch
p403
Vs390
p404
ss(Vimage
p405
g96
tp406
(dp407
Vinstall-stem
p408
Vvmlinuz
p409
sVconfigs
p410
(lp411
sVbootloaders
p412
(lp413
Vs390-tools
p414
ass(Vdescription
p415
g13
NVloongson-3
p416
tp417
(dp418
Vhardware-long
p419
VLoongson 3A or 3B based systems (e.g. from Loongson or Lemote)
p420
sVhardware
p421
VLoongson 3A/3B
p422
ss(Vrelations
p423
g221
tp424
(dp425
Vgcc-4.9
p426
Vgcc-4.9 <!stage1>, binutils-hppa64 <!stage1>, gcc-4.9-hppa64 <!stage1>
p427
ss(g125
g391
g39
tp428
(dp429
g128
(lp430
Valpha-generic
p431
aValpha-smp
p432
asg133
I01
ss(Vbase
p433
g149
tp434
(dp435
g37
(lp436
g39
asVkernel-arch
p437
Vpowerpc
p438
ss(Vbase
p439
Vx32
p440
tp441
(dp442
Vfeaturesets
p443
(lp444
sVkernel-arch
p445
Vx86
p446
ss(Vimage
p447
tp448
(dp449
Vinitramfs-generators
p450
(lp451
Vinitramfs-tools
p452
aVinitramfs-fallback
p453
ass(Vbuild
p454
g43
NVrpi2
p455
tp456
(dp457
Vimage-file
p458
Varch/arm/boot/zImagerpdt
p459
ss(Vdescription
p460
g13
NV4kc-malta
p461
tp462
(dp463
Vhardware-long
p464
VMIPS Malta boards
p465
sVhardware
p466
VMIPS Malta
p467
ss(Vimage
p468
g34
NVpowerpc-smp
p469
tp470
(dp471
Vconfigs
p472
(lp473
Vpowerpc/config.powerpc
p474
aVpowerpc/config.powerpc-smp
p475
ass(Vimage
p476
g59
tp477
(dp478
Vsuggests
p479
Vfdutils
p480
sVinstall-stem
p481
Vvmlinuz
p482
sVconfigs
p483
(lp484
Vkernelarch-arm/config
p485
aVarmel/config
p486
ass(Vimage
p487
g191
tp488
(dp489
Vsuggests
p490
Vvmelilo, fdutils
p491
sVinstall-stem
p492
Vvmlinuz
p493
ss(Vdescription
p494
g391
NValpha-smp
p495
tp496
(dp497
Vhardware-long
p498
VDEC Alpha SMP systems with extended kernel start address (Wildfire, Titan, Marvel)
p499
sVhardware
p500
VAlpha SMP
p501
ss(Vimage
p502
g21
tp503
(dp504
Vsuggests
p505
Vsilo, fdutils
p506
sVinstall-stem
p507
Vvmlinuz
p508
sVconfigs
p509
(lp510
ss(Vbase
p511
g169
Vrt
p512
tp513
(dp514
Vflavours
p515
(lp516
V686-pae
p517
ass(Vversion
p518
tp519
(dp520
Vsource
p521
V4.4.6-1+rpi12
p522
sVabiname
p523
V4.4.0-1
p524
sVupstream
p525
V4.4
p526
sVabiname_base
p527
V4.4.0
p528
ss(Vxen
p529
g5
Vnone
p530
Vamd64
p531
tp532
(dp533
Vflavours
p534
(lp535
Vamd64
p536
ass(Vbase
p537
g5
tp538
(dp539
Vfeaturesets
p540
(lp541
Vnone
p542
aVrt
p543
asVkernel-arch
p544
Vx86
p545
sVcompiler
p546
Vgcc-5
p547
ss(Vbuild
p548
g169
NV686-pae
p549
tp550
(dp551
Vdebug-info
p552
I01
ss(Vimage
p553
g391
tp554
(dp555
Vsuggests
p556
Vaboot, fdutils
p557
sVinstall-stem
p558
Vvmlinuz
p559
ss(Vdescription
p560
g34
NVpowerpc64
p561
tp562
(dp563
Vhardware
p564
V64-bit PowerPC
p565
ss(Vrelations
p566
g43
tp567
(dp568
Vheaders%gcc-4.9
p569
Vlinux-compiler-gcc-4.9-arm
p570
ss(Vrelations
p571
g169
tp572
(dp573
Vheaders%gcc-5
p574
Vlinux-compiler-gcc-5-x86
p575
ss(g125
g96
g39
tp576
(dp577
g128
(lp578
Vs390x
p579
asg133
I01
ss(Vdescription
p580
g5
g530
Vamd64
p581
tp582
(dp583
Vparts
p584
(lp585
Vxen
p586
ass(Vdescription
p587
g5
NVamd64
p588
tp589
(dp590
Vhardware-long
p591
VPCs with AMD64, Intel 64 or VIA Nano processors
p592
sVhardware
p593
V64-bit PCs
p594
ss(Vbase
p595
g13
tp596
(dp597
g37
(lp598
g39
asVkernel-arch
p599
Vmips
p600
ss(Vbuild
p601
g141
tp602
(dp603
Vimage-file
p604
Vvmlinux
p605
ss(Vdescription
p606
g65
NVocteon
p607
tp608
(dp609
Vhardware-long
p610
VCavium Networks Octeon
p611
sVhardware
p612
VOcteon
p613
ss(Vbuild
p614
g107
tp615
(dp616
Vimage-file
p617
Vvmlinux
p618
ss(Vdescription
p619
g273
NVsh7785lcr
p620
tp621
(dp622
Vhardware-long
p623
VRenesas SH7785 reference board
p624
sVhardware
p625
Vsh7785lcr
p626
ss(Vdescription
p627
g65
NV4kc-malta
p628
tp629
(dp630
Vhardware-long
p631
VMIPS Malta boards
p632
sVhardware
p633
VMIPS Malta
p634
ss(Vbase
p635
g52
tp636
(dp637
g37
(lp638
g39
asVkernel-arch
p639
Vpowerpc
p640
ss(Vdescription
p641
g21
NVsparc64-smp
p642
tp643
(dp644
Vhardware
p645
Vmultiprocessor 64-bit UltraSPARC
p646
ss(Vdescription
p647
g221
NVparisc64-smp
p648
tp649
(dp650
Vhardware-long
p651
VHP PA-RISC 64-bit SMP systems with support for more than 4 GB RAM
p652
sVhardware
p653
Vmultiprocessor 64-bit PA-RISC
p654
ss(Vdescription
p655
g13
NV5kc-malta
p656
tp657
(dp658
Vhardware-long
p659
VMIPS Malta boards (64-bit)
p660
sVhardware
p661
VMIPS Malta (64-bit)
p662
ss(Vimage
p663
g13
NVloongson-2f
p664
tp665
(dp666
Vrecommends
p667
Vlibc6-loongson2f
p668
sVconfigs
p669
(lp670
Vkernelarch-mips/config.loongson-2f
p671
ass(g125
g21
g39
tp672
(dp673
g128
(lp674
Vsparc64
p675
aVsparc64-smp
p676
asg133
I01
ss(Vbase
p677
g273
tp678
(dp679
g37
(lp680
g39
asVkernel-arch
p681
Vsh
p682
ss(Vdescription
p683
g107
NVocteon
p684
tp685
(dp686
Vhardware-long
p687
VCavium Networks Octeon
p688
sVhardware
p689
VOcteon
p690
ss(Vimage
p691
g21
NVsparc64
p692
tp693
(dp694
Vconfigs
p695
(lp696
Vkernelarch-sparc/config-up
p697
ass(Vimage
p698
g273
NVsh7785lcr
p699
tp700
(dp701
Vrecommends
p702
Vu-boot-tools
p703
sVcheck-size
p704
L4194304L
ss(g125
g191
g39
tp705
(dp706
g128
(lp707
Vm68k
p708
asg133
I01
ss(Vrelations
p709
tp710
(dp711
Vgcc-4.9
p712
Vgcc-4.9 <!stage1>
p713
sVinitramfs-fallback
p714
Vlinux-initramfs-tool
p715
sVinitramfs-tools
p716
Vinitramfs-tools (>= 0.110~)
p717
sVgcc-4.8
p718
Vgcc-4.8 <!stage1>
p719
sVgcc-5
p720
Vgcc-5 <!stage1>
p721
ss(Vimage
p722
g52
tp723
(dp724
Vsuggests
p725
Vmkvmlinuz
p726
sVinstall-stem
p727
Vvmlinux
p728
sVconfigs
p729
(lp730
ss(Vdescription
p731
g59
NVversatile
p732
tp733
(dp734
Vhardware-long
p735
VVersatile systems (PB, AB, Qemu)
p736
sVhardware
p737
VVersatile
p738
ss(Vbuild
p739
g43
NVrpi
p740
tp741
(dp742
Vimage-file
p743
Varch/arm/boot/zImagerpdt
p744
ss(Vdescription
p745
g34
NVpowerpc
p746
tp747
(dp748
Vhardware
p749
Vuniprocessor 32-bit PowerPC
p750
ss(Vbase
p751
g21
tp752
(dp753
g37
(lp754
g39
asVkernel-arch
p755
Vsparc
p756
ss(Vdescription
p757
g96
NVs390x
p758
tp759
(dp760
Vhardware
p761
VIBM zSeries
p762
ss(Vdescription
p763
g43
NVarmmp-lpae
p764
tp765
(dp766
Vhardware-long
p767
VARMv7 multiplatform kernel supporting LPAE. See\u000ahttps://wiki.debian.org/DebianKernel/ARMMP for details of supported\u000aplatforms.
p768
sVhardware
p769
VARMv7 multiplatform compatible SoCs supporting LPAE
p770
ss(Vbuild
p771
g191
tp772
(dp773
Vimage-file
p774
Vvmlinux.gz
p775
ss(Vimage
p776
g34
NVpowerpc64
p777
tp778
(dp779
Vconfigs
p780
(lp781
Vkernelarch-powerpc/config-arch-64
p782
aVkernelarch-powerpc/config-arch-64-be
p783
ass(Vimage
p784
g43
NVarmmp-lpae
p785
tp786
(dp787
Vconfigs
p788
(lp789
Varmhf/config.armmp
p790
aVarmhf/config.lpae
p791
ass(Vdescription
p792
NVrt
p793
tp794
(dp795
Vparts
p796
(lp797
Vrt
p798
asVpart-short-rt
p799
VPREEMPT_RT
p800
sVpart-long-rt
p801
VThis kernel includes the PREEMPT_RT realtime patch set.
p802
ss(Vbuild
p803
g13
tp804
(dp805
Vimage-file
p806
Vvmlinux
p807
ss(g125
g273
g39
tp808
(dp809
g128
(lp810
Vsh7751r
p811
aVsh7785lcr
p812
asg133
I01
ss(Vimage
p813
g169
tp814
(dp815
Vinstall-stem
p816
Vvmlinuz
p817
sVconfigs
p818
(lp819
sVbreaks
p820
Vxserver-xorg-input-vmmouse (<< 1:13.0.99)
p821
sVbootloaders
p822
(lp823
Vgrub-pc
p824
aVextlinux
p825
ass(Vdescription
p826
g141
NV5kc-malta
p827
tp828
(dp829
Vhardware-long
p830
VMIPS Malta boards
p831
sVhardware
p832
VMIPS Malta
p833
ss(Vdescription
p834
g169
NV686-pae
p835
tp836
(dp837
Vhardware-long
p838
VPCs with one or more processors supporting PAE
p839
sVhardware
p840
Vmodern PCs
p841
sVparts
p842
(lp843
Vpae
p844
ass(Vdescription
p845
g141
NVloongson-3
p846
tp847
(dp848
Vhardware-long
p849
VLoongson 3A or 3B based systems (e.g. from Loongson or Lemote)
p850
sVhardware
p851
VLoongson 3A/3B
p852
ss(Vbase
p853
g169
Vnone
p854
tp855
(dp856
Vflavours
p857
(lp858
V686
p859
aV686-pae
p860
ass(Vdescription
p861
g273
NVsh7751r
p862
tp863
(dp864
Vhardware-long
p865
VRenesas SH7751R R2D plus board
p866
sVhardware
p867
Vsh7751r
p868
ss(Vbase
p869
g169
tp870
(dp871
Vfeaturesets
p872
(lp873
Vnone
p874
aVrt
p875
asVkernel-arch
p876
Vx86
p877
sVcompiler
p878
Vgcc-5
p879
ss(Vimage
p880
g21
NVsparc64-smp
p881
tp882
(dp883
Vconfigs
p884
(lp885
Vkernelarch-sparc/config-smp
p886
ass(Vimage
p887
g52
NVpowerpc64
p888
tp889
(dp890
Vconfigs
p891
(lp892
Vkernelarch-powerpc/config-arch-64
p893
aVkernelarch-powerpc/config-arch-64-be
p894
ass(Vimage
p895
g169
NV686-pae
p896
tp897
(dp898
Vconfigs
p899
(lp900
Vkernelarch-x86/config-arch-32
p901
aVi386/config.686-pae
p902
asVrecommends
p903
Vlibc6-i686
p904
ss(Vdescription
p905
g13
NVloongson-2f
p906
tp907
(dp908
Vhardware-long
p909
VLemote Loongson 2F systems
p910
sVhardware
p911
VLoongson 2F
p912
ss(Vimage
p913
g13
NVloongson-3
p914
tp915
(dp916
Vconfigs
p917
(lp918
Vkernelarch-mips/config.loongson-3
p919
ass(Vabi
p920
g221
tp921
(dp922
Vignore-changes
p923
(lp924
Vdrm_dp_*
p925
ass(Vimage
p926
g65
NV5kc-malta
p927
tp928
(dp929
Vconfigs
p930
(lp931
Vkernelarch-mips/config.5kc-malta
p932
ass(Vbase
p933
g141
tp934
(dp935
g37
(lp936
g39
asVkernel-arch
p937
Vmips
p938
ss(g125
g149
g39
tp939
(dp940
g128
(lp941
Vpowerpc64le
p942
asg133
I01
ss(Vdescription
p943
g34
NVpowerpc-smp
p944
tp945
(dp946
Vhardware
p947
Vmultiprocessor 32-bit PowerPC
p948
ss(Vabi
p949
g96
tp950
(dp951
Vignore-changes
p952
(lp953
Vmodule:arch/s390/kvm/kvm
p954
ass(Vbase
p955
g5
g530
tp956
(dp957
Vflavours
p958
(lp959
Vamd64
p960
ass(g125
g34
g39
tp961
(dp962
g128
(lp963
Vpowerpc
p964
aVpowerpc-smp
p965
aVpowerpc64
p966
asg133
I01
ss(Vbase
p967
g102
Vnone
p968
tp969
(dp970
Vflavours
p971
(lp972
Varm64
p973
ass(Vimage
p974
g102
tp975
(dp976
Vinstall-stem
p977
Vvmlinuz
p978
ss(Vimage
p979
g141
tp980
(dp981
Vinstall-stem
p982
Vvmlinux
p983
ss(Vdescription
p984
g59
NVmarvell
p985
tp986
(dp987
Vhardware-long
p988
VMarvell Kirkwood based systems (SheevaPlug, QNAP TS-119/TS-219, etc)\u000aand Orion 5181, 5182 and 5281 based systems (QNAP TS-109/TS-209, etc)
p989
sVhardware
p990
VMarvell Kirkwood/Orion
p991
ss(Vbuild
p992
g65
tp993
(dp994
Vimage-file
p995
Vvmlinux
p996
ss(Vdescription
p997
g149
NVpowerpc64le
p998
tp999
(dp1000
Vhardware
p1001
VLittle-endian 64-bit PowerPC
p1002
ss(g125
g221
g39
tp1003
(dp1004
g128
(lp1005
Vparisc
p1006
aVparisc64-smp
p1007
asg133
I01
ss(Vbuild
p1008
g52
tp1009
(dp1010
Vimage-file
p1011
Vvmlinux
p1012
sVvdso
p1013
I01
ss(Vbuild
p1014
g96
tp1015
(dp1016
Vimage-file
p1017
Varch/s390/boot/image
p1018
sVvdso
p1019
I01
ss(Vdescription
p1020
g169
g854
V686-pae
p1021
tp1022
(dp1023
Vparts
p1024
(lp1025
Vxen
p1026
ass(Vdescription
p1027
g102
NVarm64
p1028
tp1029
(dp1030
Vhardware
p1031
V64-bit ARMv8 machines
p1032
ss(Vbuild
p1033
g43
tp1034
(dp1035
Vimage-file
p1036
Varch/arm/boot/zImage
p1037
sVvdso
p1038
I01
ss(Vbuild
p1039
g221
tp1040
(dp1041
Vimage-file
p1042
Vvmlinux
p1043
ss(Vpackages
p1044
tp1045
(dp1046
Vlibc-dev
p1047
I00
ss(Vimage
p1048
g107
NV5kc-malta
p1049
tp1050
(dp1051
Vconfigs
p1052
(lp1053
Vkernelarch-mips/config.5kc-malta
p1054
ass(Vbase
p1055
Vsparc
p1056
tp1057
(dp1058
Vfeaturesets
p1059
(lp1060
sVkernel-arch
p1061
Vsparc
p1062
ss(Vimage
p1063
g59
NVmarvell
p1064
tp1065
(dp1066
Vcheck-size-with-dtb
p1067
I01
sVrecommends
p1068
Vu-boot-tools
p1069
sVcheck-size
p1070
L2097080L
sVbreaks
p1071
Vflash-kernel (<< 3.57~)
p1072
ss(Vdescription
p1073
g391
NValpha-generic
p1074
tp1075
(dp1076
Vhardware-long
p1077
VDEC Alpha systems with extended kernel start address (Wildfire, Titan, Marvel)
p1078
sVhardware
p1079
VAlpha
p1080
ss(Vbuild
p1081
g169
tp1082
(dp1083
Vimage-file
p1084
Varch/x86/boot/bzImage
p1085
sVvdso
p1086
I01
ss(Vimage
p1087
g43
tp1088
(dp1089
Vsuggests
p1090
Vfdutils
p1091
sVinstall-stem
p1092
Vvmlinuz
p1093
sVconfigs
p1094
(lp1095
Vkernelarch-arm/config
p1096
ass(Vimage
p1097
g5
tp1098
(dp1099
Vinstall-stem
p1100
Vvmlinuz
p1101
sVconfigs
p1102
(lp1103
sVbreaks
p1104
Vxserver-xorg-input-vmmouse (<< 1:13.0.99)
p1105
sVbootloaders
p1106
(lp1107
Vgrub-pc
p1108
aVgrub-efi
p1109
aVextlinux
p1110
ass(Vdescription
p1111
g107
NV5kc-malta
p1112
tp1113
(dp1114
Vhardware-long
p1115
VMIPS Malta boards
p1116
sVhardware
p1117
VMIPS Malta
p1118
ss(Vimage
p1119
g141
NVocteon
p1120
tp1121
(dp1122
Vconfigs
p1123
(lp1124
Vkernelarch-mips/config.octeon
p1125
ass(Vbase
p1126
g221
NVparisc64-smp
p1127
tp1128
(dp1129
Voverride-host-type
p1130
Vhppa64-linux-gnu
p1131
sVcflags
p1132
V-fno-cse-follow-jumps
p1133
ss(Vimage
p1134
g65
NVocteon
p1135
tp1136
(dp1137
Vconfigs
p1138
(lp1139
Vkernelarch-mips/config.octeon
p1140
ass(Vbuild
p1141
g391
tp1142
(dp1143
Vimage-file
p1144
Varch/alpha/boot/vmlinux.gz
p1145
ss(Vimage
p1146
g13
tp1147
(dp1148
Vinstall-stem
p1149
Vvmlinux
p1150
ss(Vdescription
p1151
tp1152
(dp1153
Vpart-long-up
p1154
VThis kernel is not suitable for SMP (multi-processor,\u000amulti-core or hyper-threaded) systems.
p1155
sVpart-long-xen
p1156
VThis kernel also runs on a Xen hypervisor.\u000aIt supports both privileged (dom0) and unprivileged (domU) operation.
p1157
ss(Vdescription
p1158
g191
NVm68k
p1159
tp1160
(dp1161
Vhardware
p1162
VMotorola MC68020+ family
p1163
ss(Vbase
p1164
g59
tp1165
(dp1166
g37
(lp1167
g39
asVkernel-arch
p1168
Varm
p1169
ss(Vrelations
p1170
g5
tp1171
(dp1172
Vheaders%gcc-5
p1173
Vlinux-compiler-gcc-5-x86
p1174
ss(Vbuild
p1175
g149
tp1176
(dp1177
Vimage-file
p1178
Vvmlinux
p1179
sVvdso
p1180
I01
ss(Vdescription
p1181
g65
NV5kc-malta
p1182
tp1183
(dp1184
Vhardware-long
p1185
VMIPS Malta boards (64-bit)
p1186
sVhardware
p1187
VMIPS Malta (64-bit)
p1188
ss(Vimage
p1189
g107
tp1190
(dp1191
Vinstall-stem
p1192
Vvmlinux
p1193
ss(Vdescription
p1194
g21
NVsparc64
p1195
tp1196
(dp1197
Vhardware
p1198
Vuniprocessor 64-bit UltraSPARC
p1199
ss(Vabi
p1200
Ng793
tp1201
(dp1202
Vignore-changes
p1203
(lp1204
V*
p1205
ass(Vbase
p1206
tp1207
(dp1208
Vfeaturesets
p1209
(lp1210
Vnone
p1211
aVrt
p1212
asVarches
p1213
(lp1214
Valpha
p1215
aVamd64
p1216
aVarm64
p1217
aVarmel
p1218
aVarmhf
p1219
aVhppa
p1220
aVi386
p1221
aVm68k
p1222
aVmips
p1223
aVmipsel
p1224
aVmips64
p1225
aVmips64el
p1226
aVor1k
p1227
aVpowerpc
p1228
aVpowerpcspe
p1229
aVppc64
p1230
aVppc64el
p1231
aVs390
p1232
aVs390x
p1233
aVsh4
p1234
aVsparc
p1235
aVsparc64
p1236
aVx32
p1237
asVcompiler
p1238
Vgcc-4.9
p1239
ss(Vbase
p1240
g65
tp1241
(dp1242
g37
(lp1243
g39
asVkernel-arch
p1244
Vmips
p1245
ss(Vbase
p1246
g96
tp1247
(dp1248
g37
(lp1249
g39
asVkernel-arch
p1250
Vs390
p1251
ss(g125
g13
g39
tp1252
(dp1253
g128
(lp1254
V4kc-malta
p1255
aV5kc-malta
p1256
aVloongson-2e
p1257
aVloongson-2f
p1258
aVloongson-3
p1259
asg133
I01
ss(Vabi
p1260
tp1261
(dp1262
Vabiname
p1263
V1
p1264
sVignore-changes
p1265
(lp1266
V__scm_destroy
p1267
aV__scm_send
p1268
aVscm_detach_fds
p1269
aVscm_fp_dup
p1270
aVefivar_validate
p1271
aVget_thermal_instance
p1272
aVinet_csk_reqsk_queue_add
p1273
aVtcp_req_err
p1274
aVmodule:drivers/gpu/drm/drm_kms_helper
p1275
aVmodule:drivers/hv/hv_vmbus
p1276
aVmodule:drivers/md/dm-snapshot
p1277
aVmodule:drivers/mmc/host/sdhci
p1278
aVmodule:drivers/mmc/host/sdhci*
p1279
aVmodule:net/ceph/libceph
p1280
ass(Vbase
p1281
g102
tp1282
(dp1283
Vfeaturesets
p1284
(lp1285
Vnone
p1286
asVkernel-arch
p1287
Varm64
p1288
ss(Vrelations
p1289
g96
tp1290
(dp1291
Vheaders%gcc-4.9
p1292
Vlinux-compiler-gcc-4.9-s390
p1293
sstp1294
Rp1295
.