ccopy_reg
_reconstructor
p0
(cdebian_linux.config
ConfigCore
p1
c__builtin__
dict
p2
(dp3
(Vbase
p4
Vhppa
p5
Vnone
p6
tp7
(dp8
Vimplicit-flavour
p9
I01
sVflavours
p10
(lp11
Vparisc
p12
aVparisc64-smp
p13
ass(Vimage
p14
Vppc64el
p15
NVpowerpc64le
p16
tp17
(dp18
Vconfigs
p19
(lp20
Vkernelarch-powerpc/config-arch-64
p21
aVkernelarch-powerpc/config-arch-64-le
p22
ass(g4
Valpha
p23
g6
tp24
(dp25
g9
I01
sg10
(lp26
Valpha-generic
p27
aValpha-smp
p28
ass(Vimage
p29
Vmips64el
p30
NVocteon
p31
tp32
(dp33
Vconfigs
p34
(lp35
Vkernelarch-mips/config.octeon
p36
ass(Vimage
p37
Vmipsel
p38
NVloongson-2f
p39
tp40
(dp41
Vrecommends
p42
Vlibc6-loongson2f
p43
sVconfigs
p44
(lp45
Vkernelarch-mips/config.loongson-2f
p46
ass(Vbase
p47
Vpowerpcspe
p48
tp49
(dp50
Vfeaturesets
p51
(lp52
g6
asVkernel-arch
p53
Vpowerpc
p54
ss(Vbase
p55
Vx32
p56
tp57
(dp58
Vfeaturesets
p59
(lp60
sVkernel-arch
p61
Vx86
p62
ss(Vbuild
p63
Vpowerpc
p64
tp65
(dp66
Vimage-file
p67
Vvmlinux
p68
sVvdso
p69
I01
ss(Vabi
p70
NVrt
p71
tp72
(dp73
Vignore-changes
p74
(lp75
V*
p76
ass(Vdescription
p77
Varmel
p78
NVmarvell
p79
tp80
(dp81
Vhardware
p82
VMarvell Kirkwood/Orion
p83
sVhardware-long
p84
VMarvell Kirkwood based systems (SheevaPlug, QNAP TS-119/TS-219, etc)\u000aand Orion 5181, 5182 and 5281 based systems (QNAP TS-109/TS-209, etc)
p85
ss(Vdescription
p86
Vi386
p87
NV686-pae
p88
tp89
(dp90
Vhardware
p91
Vmodern PCs
p92
sVparts
p93
(lp94
Vpae
p95
asVhardware-long
p96
VPCs with one or more processors supporting PAE
p97
ss(Vbase
p98
g5
NVparisc64-smp
p99
tp100
(dp101
Vcflags
p102
V-fno-cse-follow-jumps
p103
sVoverride-host-type
p104
Vhppa64-linux-gnu
p105
ss(Vbase
p106
Vmips64
p107
tp108
(dp109
g51
(lp110
g6
asVkernel-arch
p111
Vmips
p112
ss(g4
g15
g6
tp113
(dp114
g9
I01
sg10
(lp115
Vpowerpc64le
p116
ass(Vimage
p117
Varmhf
p118
NVrpi
p119
tp120
(dp121
Vconfigs
p122
(lp123
Varmhf/config.rpix
p124
aVarmhf/config.test
p125
aVarmhf/config.rpi
p126
ass(Vbase
p127
NVrt
p128
tp129
(dp130
Venabled
p131
I01
ss(Vdescription
p132
g15
NVpowerpc64le
p133
tp134
(dp135
Vhardware
p136
VLittle-endian 64-bit PowerPC
p137
ss(Vimage
p138
g30
NV5kc-malta
p139
tp140
(dp141
Vconfigs
p142
(lp143
Vkernelarch-mips/config.5kc-malta
p144
ass(Vdescription
p145
g87
NV686
p146
tp147
(dp148
Vhardware
p149
Volder PCs
p150
sVhardware-long
p151
VPCs with one or more processors not supporting PAE
p152
ss(Vbase
p153
g118
tp154
(dp155
g51
(lp156
g6
asVkernel-arch
p157
Varm
p158
ss(Vimage
p159
g23
tp160
(dp161
Vinstall-stem
p162
Vvmlinuz
p163
sVsuggests
p164
Vaboot, fdutils
p165
ss(Vdescription
p166
g23
NValpha-smp
p167
tp168
(dp169
Vhardware
p170
VAlpha SMP
p171
sVhardware-long
p172
VDEC Alpha SMP systems with extended kernel start address (Wildfire, Titan, Marvel)
p173
ss(Vimage
p174
Vsh4
p175
NVsh7785lcr
p176
tp177
(dp178
Vrecommends
p179
Vu-boot-tools
p180
sVcheck-size
p181
L4194304L
ss(Vdescription
p182
Vsparc64
p183
NVsparc64-smp
p184
tp185
(dp186
Vhardware
p187
Vmultiprocessor 64-bit UltraSPARC
p188
ss(g4
Vppc64
p189
g6
tp190
(dp191
g9
I01
sg10
(lp192
Vpowerpc64
p193
ass(g4
g78
g6
tp194
(dp195
g9
I01
sg10
(lp196
Vmarvell
p197
aVversatile
p198
ass(Vimage
p199
g118
NVarmmp-lpae
p200
tp201
(dp202
Vconfigs
p203
(lp204
Varmhf/config.armmp
p205
aVarmhf/config.lpae
p206
ass(Vbuild
p207
Vs390x
p208
tp209
(dp210
Vimage-file
p211
Varch/s390/boot/image
p212
sVvdso
p213
I01
ss(Vimage
p214
tp215
(dp216
Vinitramfs-generators
p217
(lp218
Vinitramfs-tools
p219
aVinitramfs-fallback
p220
ass(Vimage
p221
g87
NV686
p222
tp223
(dp224
Vrecommends
p225
Vlibc6-i686
p226
sVconfigs
p227
(lp228
Vkernelarch-x86/config-arch-32
p229
aVi386/config.686
p230
ass(Vbase
p231
g87
Vrt
p232
tp233
(dp234
Vflavours
p235
(lp236
V686-pae
p237
ass(Vbase
p238
g175
tp239
(dp240
g51
(lp241
g6
asVkernel-arch
p242
Vsh
p243
ss(Vimage
p244
g175
tp245
(dp246
Vinstall-stem
p247
Vvmlinuz
p248
sVsuggests
p249
Vfdutils
p250
ss(Vdescription
p251
Ng71
tp252
(dp253
Vparts
p254
(lp255
Vrt
p256
asVpart-short-rt
p257
VPREEMPT_RT
p258
sVpart-long-rt
p259
VThis kernel includes the PREEMPT_RT realtime patch set.
p260
ss(Vimage
p261
g64
NVpowerpc-smp
p262
tp263
(dp264
Vconfigs
p265
(lp266
Vpowerpc/config.powerpc
p267
aVpowerpc/config.powerpc-smp
p268
ass(Vdescription
p269
g38
NV5kc-malta
p270
tp271
(dp272
Vhardware
p273
VMIPS Malta (64-bit)
p274
sVhardware-long
p275
VMIPS Malta boards (64-bit)
p276
ss(Vimage
p277
Vmips
p278
NVocteon
p279
tp280
(dp281
Vconfigs
p282
(lp283
Vkernelarch-mips/config.octeon
p284
ass(Vimage
p285
g78
tp286
(dp287
Vinstall-stem
p288
Vvmlinuz
p289
sVconfigs
p290
(lp291
Vkernelarch-arm/config
p292
aVarmel/config
p293
asVsuggests
p294
Vfdutils
p295
ss(Vbase
p296
g78
tp297
(dp298
g51
(lp299
g6
asVkernel-arch
p300
Varm
p301
ss(Vdescription
p302
g87
tp303
(dp304
Vpart-long-pae
p305
VThis kernel requires PAE (Physical Address Extension).\u000aThis feature is supported by the Intel Pentium Pro/II/III/4/4M/D, Xeon,\u000aCore and Atom; AMD Geode NX, Athlon (K7), Duron, Opteron, Sempron,\u000aTurion or Phenom; Transmeta Efficeon; VIA C7; and some other processors.
p306
ss(Vimage
p307
g38
NVloongson-2e
p308
tp309
(dp310
Vconfigs
p311
(lp312
Vkernelarch-mips/config.loongson-2e
p313
ass(g4
g278
g6
tp314
(dp315
g9
I01
sg10
(lp316
V4kc-malta
p317
aV5kc-malta
p318
aVocteon
p319
ass(Vbuild
p320
g15
tp321
(dp322
Vimage-file
p323
Vvmlinux
p324
sVvdso
p325
I01
ss(Vbase
p326
Varm64
p327
Vnone
p328
tp329
(dp330
Vflavours
p331
(lp332
Varm64
p333
ass(Vbase
p334
g64
tp335
(dp336
g51
(lp337
g6
asVkernel-arch
p338
Vpowerpc
p339
ss(Vdescription
p340
g38
NV4kc-malta
p341
tp342
(dp343
Vhardware
p344
VMIPS Malta
p345
sVhardware-long
p346
VMIPS Malta boards
p347
ss(Vbuild
p348
g118
NVrpi2
p349
tp350
(dp351
Vimage-file
p352
Varch/arm/boot/zImagerpdt
p353
ss(Vimage
p354
g278
NV5kc-malta
p355
tp356
(dp357
Vconfigs
p358
(lp359
Vkernelarch-mips/config.5kc-malta
p360
ass(Vimage
p361
g87
NV686-pae
p362
tp363
(dp364
Vrecommends
p365
Vlibc6-i686
p366
sVconfigs
p367
(lp368
Vkernelarch-x86/config-arch-32
p369
aVi386/config.686-pae
p370
ass(Vrelations
p371
g78
tp372
(dp373
Vheaders%gcc-4.9
p374
Vlinux-compiler-gcc-4.9-arm
p375
ss(Vimage
p376
g30
tp377
(dp378
Vinstall-stem
p379
Vvmlinux
p380
ss(Vbase
p381
Vm68k
p382
tp383
(dp384
Vcflags
p385
V-ffreestanding
p386
sg51
(lp387
g6
asVkernel-arch
p388
Vm68k
p389
sVcompiler
p390
Vgcc-4.8
p391
ss(g4
g48
g6
tp392
(dp393
g9
I01
sg10
(lp394
Vpowerpcspe
p395
ass(Vdescription
p396
g38
NVloongson-2e
p397
tp398
(dp399
Vhardware
p400
VLoongson 2E
p401
sVhardware-long
p402
VLemote Loongson 2E systems
p403
ss(Vbuild
p404
g38
tp405
(dp406
Vimage-file
p407
Vvmlinux
p408
ss(Vdescription
p409
g38
NVloongson-3
p410
tp411
(dp412
Vhardware
p413
VLoongson 3A/3B
p414
sVhardware-long
p415
VLoongson 3A or 3B based systems (e.g. from Loongson or Lemote)
p416
ss(Vimage
p417
g107
tp418
(dp419
Vinstall-stem
p420
Vvmlinux
p421
ss(Vimage
p422
g189
tp423
(dp424
Vinstall-stem
p425
Vvmlinux
p426
sVconfigs
p427
(lp428
sVsuggests
p429
Vmkvmlinuz
p430
ss(Vbase
p431
Vor1k
p432
tp433
(dp434
Vfeaturesets
p435
(lp436
sVkernel-arch
p437
Vopenrisc
p438
ss(Vbase
p439
g5
tp440
(dp441
g51
(lp442
g6
asVkernel-arch
p443
Vparisc
p444
ss(Vbase
p445
Vamd64
p446
Vrt
p447
tp448
(dp449
Vflavours
p450
(lp451
Vamd64
p452
ass(Vdescription
p453
g118
NVarmmp
p454
tp455
(dp456
Vhardware
p457
VARMv7 multiplatform compatible SoCs
p458
sVhardware-long
p459
VARMv7 multiplatform kernel. See\u000ahttps://wiki.debian.org/DebianKernel/ARMMP for details of supported\u000aplatforms
p460
ss(Vimage
p461
g38
NV5kc-malta
p462
tp463
(dp464
Vconfigs
p465
(lp466
Vkernelarch-mips/config.5kc-malta
p467
ass(Vbuild
p468
g382
tp469
(dp470
Vimage-file
p471
Vvmlinux.gz
p472
ss(Vdescription
p473
g5
NVparisc
p474
tp475
(dp476
Vhardware
p477
V32-bit PA-RISC
p478
sVhardware-long
p479
VHP PA-RISC 32-bit systems with max 4 GB RAM
p480
ss(Vbuild
p481
g5
tp482
(dp483
Vimage-file
p484
Vvmlinux
p485
ss(Vrelations
p486
g87
tp487
(dp488
Vheaders%gcc-5
p489
Vlinux-compiler-gcc-5-x86
p490
ss(Vdescription
p491
g175
NVsh7751r
p492
tp493
(dp494
Vhardware
p495
Vsh7751r
p496
sVhardware-long
p497
VRenesas SH7751R R2D plus board
p498
ss(Vdescription
p499
g118
NVrpi
p500
tp501
(dp502
Vhardware
p503
VRaspberryPI
p504
sVhardware-long
p505
VRaspberry PI
p506
ss(Vimage
p507
g183
tp508
(dp509
Vinstall-stem
p510
Vvmlinuz
p511
sVconfigs
p512
(lp513
sVsuggests
p514
Vsilo, fdutils
p515
ss(Vdescription
p516
g327
NVarm64
p517
tp518
(dp519
Vhardware
p520
V64-bit ARMv8 machines
p521
ss(Vbase
p522
Vs390
p523
tp524
(dp525
Vfeaturesets
p526
(lp527
sVkernel-arch
p528
Vs390
p529
ss(Vbuild
p530
g278
tp531
(dp532
Vimage-file
p533
Vvmlinux
p534
ss(Vdescription
p535
g278
NVocteon
p536
tp537
(dp538
Vhardware
p539
VOcteon
p540
sVhardware-long
p541
VCavium Networks Octeon
p542
ss(Vimage
p543
g38
tp544
(dp545
Vinstall-stem
p546
Vvmlinux
p547
ss(Vrelations
p548
g118
tp549
(dp550
Vheaders%gcc-4.9
p551
Vlinux-compiler-gcc-4.9-arm
p552
ss(Vimage
p553
g48
tp554
(dp555
Vinstall-stem
p556
Vvmlinux
p557
sVsuggests
p558
Vmkvmlinuz
p559
ss(Vdescription
p560
g208
NVs390x
p561
tp562
(dp563
Vhardware
p564
VIBM zSeries
p565
ss(Vbuild
p566
g118
NVrpi
p567
tp568
(dp569
Vimage-file
p570
Varch/arm/boot/zImagerpdt
p571
ss(Vabi
p572
tp573
(dp574
Vabiname
p575
V1
p576
sVignore-changes
p577
(lp578
V__scm_destroy
p579
aV__scm_send
p580
aVscm_detach_fds
p581
aVscm_fp_dup
p582
aVefivar_validate
p583
aVget_thermal_instance
p584
aVinet_csk_reqsk_queue_add
p585
aVtcp_req_err
p586
aVmodule:drivers/gpu/drm/drm_kms_helper
p587
aVmodule:drivers/hv/hv_vmbus
p588
aVmodule:drivers/md/dm-snapshot
p589
aVmodule:drivers/mmc/host/sdhci
p590
aVmodule:drivers/mmc/host/sdhci*
p591
aVmodule:net/ceph/libceph
p592
ass(Vabi
p593
g208
tp594
(dp595
Vignore-changes
p596
(lp597
Vmodule:arch/s390/kvm/kvm
p598
ass(g4
g208
g6
tp599
(dp600
g9
I01
sg10
(lp601
Vs390x
p602
ass(Vdescription
p603
g382
NVm68k
p604
tp605
(dp606
Vhardware
p607
VMotorola MC68020+ family
p608
ss(Vdescription
p609
g38
NVloongson-2f
p610
tp611
(dp612
Vhardware
p613
VLoongson 2F
p614
sVhardware-long
p615
VLemote Loongson 2F systems
p616
ss(Vbase
p617
g183
tp618
(dp619
g51
(lp620
g6
asVkernel-arch
p621
Vsparc
p622
ss(Vbuild
p623
g87
tp624
(dp625
Vimage-file
p626
Varch/x86/boot/bzImage
p627
sVvdso
p628
I01
ss(Vdescription
p629
g189
NVpowerpc64
p630
tp631
(dp632
Vhardware
p633
V64-bit PowerPC
p634
ss(Vbase
p635
g30
tp636
(dp637
g51
(lp638
g6
asVkernel-arch
p639
Vmips
p640
ss(Vbase
p641
g23
tp642
(dp643
g51
(lp644
g6
asVkernel-arch
p645
Valpha
p646
ss(Vdescription
p647
g118
NVrpi2
p648
tp649
(dp650
Vhardware
p651
VRaspberryPI2
p652
sVhardware-long
p653
VRaspberry PI 2
p654
ss(g4
g183
g6
tp655
(dp656
g9
I01
sg10
(lp657
Vsparc64
p658
aVsparc64-smp
p659
ass(Vbase
p660
g446
Vnone
p661
tp662
(dp663
Vflavours
p664
(lp665
Vamd64
p666
ass(Vdescription
p667
g107
NV5kc-malta
p668
tp669
(dp670
Vhardware
p671
VMIPS Malta
p672
sVhardware-long
p673
VMIPS Malta boards
p674
ss(Vxen
p675
g446
g661
Vamd64
p676
tp677
(dp678
Vflavours
p679
(lp680
Vamd64
p681
ass(Vdescription
p682
g30
NVloongson-3
p683
tp684
(dp685
Vhardware
p686
VLoongson 3A/3B
p687
sVhardware-long
p688
VLoongson 3A or 3B based systems (e.g. from Loongson or Lemote)
p689
ss(Vimage
p690
g327
NVarm64
p691
tp692
(dp693
s(Vbuild
p694
g118
tp695
(dp696
Vimage-file
p697
Varch/arm/boot/zImage
p698
sVvdso
p699
I01
ss(Vimage
p700
g64
NVpowerpc64
p701
tp702
(dp703
Vconfigs
p704
(lp705
Vkernelarch-powerpc/config-arch-64
p706
aVkernelarch-powerpc/config-arch-64-be
p707
ass(Vbase
p708
g15
tp709
(dp710
g51
(lp711
g6
asVkernel-arch
p712
Vpowerpc
p713
ss(Vimage
p714
g15
tp715
(dp716
Vinstall-stem
p717
Vvmlinux
p718
sVconfigs
p719
(lp720
sVsuggests
p721
Vmkvmlinuz
p722
ss(Vdescription
p723
g78
NVversatile
p724
tp725
(dp726
Vhardware
p727
VVersatile
p728
sVhardware-long
p729
VVersatile systems (PB, AB, Qemu)
p730
ss(Vdescription
p731
g175
NVsh7785lcr
p732
tp733
(dp734
Vhardware
p735
Vsh7785lcr
p736
sVhardware-long
p737
VRenesas SH7785 reference board
p738
ss(Vimage
p739
g78
NVmarvell
p740
tp741
(dp742
Vrecommends
p743
Vu-boot-tools
p744
sVcheck-size
p745
L2097080L
sVbreaks
p746
Vflash-kernel (<< 3.57~)
p747
sVcheck-size-with-dtb
p748
I01
ss(Vimage
p749
g38
NVloongson-3
p750
tp751
(dp752
Vconfigs
p753
(lp754
Vkernelarch-mips/config.loongson-3
p755
ass(Vbuild
p756
g446
tp757
(dp758
Vimage-file
p759
Varch/x86/boot/bzImage
p760
sVvdso
p761
I01
sVdebug-info
p762
I01
ss(Vimage
p763
g38
NV4kc-malta
p764
tp765
(dp766
Vconfigs
p767
(lp768
Vkernelarch-mips/config.4kc-malta
p769
ass(Vbuild
p770
g327
tp771
(dp772
Vimage-file
p773
Varch/arm64/boot/Image
p774
sVvdso
p775
I01
sVdebug-info
p776
I01
ss(Vbuild
p777
g23
tp778
(dp779
Vimage-file
p780
Varch/alpha/boot/vmlinux.gz
p781
ss(Vbuild
p782
g30
tp783
(dp784
Vimage-file
p785
Vvmlinux
p786
ss(Vbuild
p787
g175
tp788
(dp789
Vimage-file
p790
Varch/sh/boot/zImage
p791
ss(Vimage
p792
g183
NVsparc64
p793
tp794
(dp795
Vconfigs
p796
(lp797
Vkernelarch-sparc/config-up
p798
ass(Vdescription
p799
g446
g661
Vamd64
p800
tp801
(dp802
Vparts
p803
(lp804
Vxen
p805
ass(Vimage
p806
g64
tp807
(dp808
Vinstall-stem
p809
Vvmlinux
p810
sVconfigs
p811
(lp812
sVsuggests
p813
Vmkvmlinuz
p814
ss(Vdescription
p815
g278
NV4kc-malta
p816
tp817
(dp818
Vhardware
p819
VMIPS Malta
p820
sVhardware-long
p821
VMIPS Malta boards
p822
ss(g4
g118
g6
tp823
(dp824
g9
I01
sg10
(lp825
Vrpi
p826
aVrpi2
p827
ass(Vbuild
p828
g78
tp829
(dp830
Vimage-file
p831
Varch/arm/boot/zImage
p832
ss(Vdescription
p833
g446
NVamd64
p834
tp835
(dp836
Vhardware
p837
V64-bit PCs
p838
sVhardware-long
p839
VPCs with AMD64, Intel 64 or VIA Nano processors
p840
ss(Vpackages
p841
tp842
(dp843
Vlibc-dev
p844
I00
ss(Vimage
p845
g183
NVsparc64-smp
p846
tp847
(dp848
Vconfigs
p849
(lp850
Vkernelarch-sparc/config-smp
p851
ass(Vdescription
p852
g30
NV5kc-malta
p853
tp854
(dp855
Vhardware
p856
VMIPS Malta
p857
sVhardware-long
p858
VMIPS Malta boards
p859
ss(Vbuild
p860
g183
tp861
(dp862
Vimage-file
p863
Varch/sparc/boot/zImage
p864
ss(Vdescription
p865
g118
NVarmmp-lpae
p866
tp867
(dp868
Vhardware
p869
VARMv7 multiplatform compatible SoCs supporting LPAE
p870
sVhardware-long
p871
VARMv7 multiplatform kernel supporting LPAE. See\u000ahttps://wiki.debian.org/DebianKernel/ARMMP for details of supported\u000aplatforms.
p872
ss(Vimage
p873
g118
NVrpi2
p874
tp875
(dp876
Vconfigs
p877
(lp878
Varmhf/config.rpix
p879
aVarmhf/config.rpi2
p880
ass(g4
g175
g6
tp881
(dp882
g9
I01
sg10
(lp883
Vsh7751r
p884
aVsh7785lcr
p885
ass(Vimage
p886
g107
NV5kc-malta
p887
tp888
(dp889
Vconfigs
p890
(lp891
Vkernelarch-mips/config.5kc-malta
p892
ass(Vrelations
p893
g446
tp894
(dp895
Vheaders%gcc-5
p896
Vlinux-compiler-gcc-5-x86
p897
ss(Vbuild
p898
g107
tp899
(dp900
Vimage-file
p901
Vvmlinux
p902
ss(Vimage
p903
g208
tp904
(dp905
Vinstall-stem
p906
Vvmlinuz
p907
sVconfigs
p908
(lp909
sVbootloaders
p910
(lp911
Vs390-tools
p912
ass(Vbase
p913
g278
tp914
(dp915
g51
(lp916
g6
asVkernel-arch
p917
Vmips
p918
ss(Vimage
p919
g107
NVocteon
p920
tp921
(dp922
Vconfigs
p923
(lp924
Vkernelarch-mips/config.octeon
p925
ass(g4
g38
g6
tp926
(dp927
g9
I01
sg10
(lp928
V4kc-malta
p929
aV5kc-malta
p930
aVloongson-2e
p931
aVloongson-2f
p932
aVloongson-3
p933
ass(Vimage
p934
g87
tp935
(dp936
Vinstall-stem
p937
Vvmlinuz
p938
sVconfigs
p939
(lp940
sVbreaks
p941
Vxserver-xorg-input-vmmouse (<< 1:13.0.99)
p942
sVbootloaders
p943
(lp944
Vgrub-pc
p945
aVextlinux
p946
ass(Vrelations
p947
tp948
(dp949
Vgcc-5
p950
Vgcc-5 <!stage1>
p951
sVgcc-4.9
p952
Vgcc-4.9 <!stage1>
p953
sVgcc-4.8
p954
Vgcc-4.8 <!stage1>
p955
sVinitramfs-fallback
p956
Vlinux-initramfs-tool
p957
sVinitramfs-tools
p958
Vinitramfs-tools (>= 0.110~)
p959
ss(Vimage
p960
g278
NV4kc-malta
p961
tp962
(dp963
Vconfigs
p964
(lp965
Vkernelarch-mips/config.4kc-malta
p966
ass(Vbase
p967
Vsparc
p968
tp969
(dp970
Vfeaturesets
p971
(lp972
sVkernel-arch
p973
Vsparc
p974
ss(Vbuild
p975
g87
NV686-pae
p976
tp977
(dp978
Vdebug-info
p979
I01
ss(Vbuild
p980
g208
NVs390x
p981
tp982
(dp983
Vdebug-info
p984
I01
ss(g4
g382
g6
tp985
(dp986
g9
I01
sg10
(lp987
Vm68k
p988
ass(Vbase
p989
g87
tp990
(dp991
Vfeaturesets
p992
(lp993
Vnone
p994
aVrt
p995
asVkernel-arch
p996
Vx86
p997
sVcompiler
p998
Vgcc-5
p999
ss(Vimage
p1000
g446
NVamd64
p1001
tp1002
(dp1003
Vconfigs
p1004
(lp1005
Vkernelarch-x86/config-arch-64
p1006
ass(Vversion
p1007
tp1008
(dp1009
Vabiname_base
p1010
V4.4.0
p1011
sVabiname
p1012
V4.4.0-1
p1013
sVupstream
p1014
V4.4
p1015
sVsource
p1016
V4.4.6-1+rpi4
p1017
ss(Vbase
p1018
g87
Vnone
p1019
tp1020
(dp1021
Vflavours
p1022
(lp1023
V686
p1024
aV686-pae
p1025
ass(Vimage
p1026
g189
NVpowerpc64
p1027
tp1028
(dp1029
Vconfigs
p1030
(lp1031
Vkernelarch-powerpc/config-arch-64
p1032
aVkernelarch-powerpc/config-arch-64-be
p1033
ass(g4
g107
g6
tp1034
(dp1035
g9
I01
sg10
(lp1036
V5kc-malta
p1037
aVocteon
p1038
ass(Vbase
p1039
g38
tp1040
(dp1041
g51
(lp1042
g6
asVkernel-arch
p1043
Vmips
p1044
ss(Vdescription
p1045
g5
NVparisc64-smp
p1046
tp1047
(dp1048
Vhardware
p1049
Vmultiprocessor 64-bit PA-RISC
p1050
sVhardware-long
p1051
VHP PA-RISC 64-bit SMP systems with support for more than 4 GB RAM
p1052
ss(g4
g30
g6
tp1053
(dp1054
g9
I01
sg10
(lp1055
V5kc-malta
p1056
aVloongson-3
p1057
aVocteon
p1058
ass(Vdescription
p1059
g30
NVocteon
p1060
tp1061
(dp1062
Vhardware
p1063
VOcteon
p1064
sVhardware-long
p1065
VCavium Networks Octeon
p1066
ss(Vdescription
p1067
g64
NVpowerpc64
p1068
tp1069
(dp1070
Vhardware
p1071
V64-bit PowerPC
p1072
ss(Vimage
p1073
g118
tp1074
(dp1075
Vinstall-stem
p1076
Vvmlinuz
p1077
sVconfigs
p1078
(lp1079
Vkernelarch-arm/config
p1080
asVsuggests
p1081
Vfdutils
p1082
ss(Vabi
p1083
g5
tp1084
(dp1085
Vignore-changes
p1086
(lp1087
Vdrm_dp_*
p1088
ass(Vdescription
p1089
g23
NValpha-generic
p1090
tp1091
(dp1092
Vhardware
p1093
VAlpha
p1094
sVhardware-long
p1095
VDEC Alpha systems with extended kernel start address (Wildfire, Titan, Marvel)
p1096
ss(Vbuild
p1097
g189
tp1098
(dp1099
Vimage-file
p1100
Vvmlinux
p1101
sVvdso
p1102
I01
ss(Vbase
p1103
tp1104
(dp1105
Varches
p1106
(lp1107
Valpha
p1108
aVamd64
p1109
aVarm64
p1110
aVarmel
p1111
aVarmhf
p1112
aVhppa
p1113
aVi386
p1114
aVm68k
p1115
aVmips
p1116
aVmipsel
p1117
aVmips64
p1118
aVmips64el
p1119
aVor1k
p1120
aVpowerpc
p1121
aVpowerpcspe
p1122
aVppc64
p1123
aVppc64el
p1124
aVs390
p1125
aVs390x
p1126
aVsh4
p1127
aVsparc
p1128
aVsparc64
p1129
aVx32
p1130
asVfeaturesets
p1131
(lp1132
Vnone
p1133
aVrt
p1134
asVcompiler
p1135
Vgcc-4.9
p1136
ss(Vdescription
p1137
g64
NVpowerpc
p1138
tp1139
(dp1140
Vhardware
p1141
Vuniprocessor 32-bit PowerPC
p1142
ss(Vdescription
p1143
g183
NVsparc64
p1144
tp1145
(dp1146
Vhardware
p1147
Vuniprocessor 64-bit UltraSPARC
p1148
ss(Vimage
p1149
g382
tp1150
(dp1151
Vinstall-stem
p1152
Vvmlinuz
p1153
sVsuggests
p1154
Vvmelilo, fdutils
p1155
ss(Vbase
p1156
g189
tp1157
(dp1158
g51
(lp1159
g6
asVkernel-arch
p1160
Vpowerpc
p1161
ss(Vimage
p1162
g5
tp1163
(dp1164
Vinstall-stem
p1165
Vvmlinux
p1166
sVsuggests
p1167
Vpalo
p1168
ss(Vimage
p1169
g278
tp1170
(dp1171
Vinstall-stem
p1172
Vvmlinux
p1173
ss(Vdescription
p1174
g107
NVocteon
p1175
tp1176
(dp1177
Vhardware
p1178
VOcteon
p1179
sVhardware-long
p1180
VCavium Networks Octeon
p1181
ss(Vdescription
p1182
g48
tp1183
(dp1184
Vhardware
p1185
V32-bit PowerPC with SPE (instead of AltiVec) with SMP support
p1186
ss(Vimage
p1187
g208
NVs390x
p1188
tp1189
(dp1190
Vconfigs
p1191
(lp1192
Vkernelarch-s390/config-arch-64
p1193
ass(Vrelations
p1194
g208
tp1195
(dp1196
Vheaders%gcc-4.9
p1197
Vlinux-compiler-gcc-4.9-s390
p1198
ss(Vdescription
p1199
g87
g1019
V686-pae
p1200
tp1201
(dp1202
Vparts
p1203
(lp1204
Vxen
p1205
ass(Vdescription
p1206
g278
NV5kc-malta
p1207
tp1208
(dp1209
Vhardware
p1210
VMIPS Malta (64-bit)
p1211
sVhardware-long
p1212
VMIPS Malta boards (64-bit)
p1213
ss(Vimage
p1214
g446
tp1215
(dp1216
Vinstall-stem
p1217
Vvmlinuz
p1218
sVconfigs
p1219
(lp1220
sVbreaks
p1221
Vxserver-xorg-input-vmmouse (<< 1:13.0.99)
p1222
sVbootloaders
p1223
(lp1224
Vgrub-pc
p1225
aVgrub-efi
p1226
aVextlinux
p1227
ass(Vbase
p1228
g208
tp1229
(dp1230
g51
(lp1231
g6
asVkernel-arch
p1232
Vs390
p1233
ss(Vimage
p1234
g30
NVloongson-3
p1235
tp1236
(dp1237
Vconfigs
p1238
(lp1239
Vkernelarch-mips/config.loongson-3
p1240
ass(Vrelations
p1241
g5
tp1242
(dp1243
Vgcc-4.9
p1244
Vgcc-4.9 <!stage1>, binutils-hppa64 <!stage1>, gcc-4.9-hppa64 <!stage1>
p1245
ss(Vdescription
p1246
tp1247
(dp1248
Vpart-long-xen
p1249
VThis kernel also runs on a Xen hypervisor.\u000aIt supports both privileged (dom0) and unprivileged (domU) operation.
p1250
sVpart-long-up
p1251
VThis kernel is not suitable for SMP (multi-processor,\u000amulti-core or hyper-threaded) systems.
p1252
ss(Vbuild
p1253
g48
tp1254
(dp1255
Vimage-file
p1256
Vvmlinux
p1257
sVvdso
p1258
I01
ss(Vdescription
p1259
g64
NVpowerpc-smp
p1260
tp1261
(dp1262
Vhardware
p1263
Vmultiprocessor 32-bit PowerPC
p1264
ss(g4
g64
g6
tp1265
(dp1266
g9
I01
sg10
(lp1267
Vpowerpc
p1268
aVpowerpc-smp
p1269
aVpowerpc64
p1270
ass(Vbase
p1271
g327
tp1272
(dp1273
Vfeaturesets
p1274
(lp1275
Vnone
p1276
asVkernel-arch
p1277
Varm64
p1278
ss(Vimage
p1279
g327
tp1280
(dp1281
Vinstall-stem
p1282
Vvmlinuz
p1283
ss(Vbase
p1284
g446
tp1285
(dp1286
Vfeaturesets
p1287
(lp1288
Vnone
p1289
aVrt
p1290
asVkernel-arch
p1291
Vx86
p1292
sVcompiler
p1293
Vgcc-5
p1294
sstp1295
Rp1296
.