ccopy_reg
_reconstructor
p0
(cdebian_linux.config
ConfigCore
p1
c__builtin__
dict
p2
(dp3
(Vbuild
p4
Vm68k
p5
tp6
(dp7
Vimage-file
p8
Vvmlinux.gz
p9
ss(Vimage
p10
Varmhf
p11
NVarmmp-lpae
p12
tp13
(dp14
Vconfigs
p15
(lp16
Varmhf/config.armmp
p17
aVarmhf/config.lpae
p18
ass(Vbase
p19
Varm64
p20
Vnone
p21
tp22
(dp23
Vflavours
p24
(lp25
Varm64
p26
ass(Vdescription
p27
g11
NVrpi
p28
tp29
(dp30
Vhardware-long
p31
VRaspberry PI
p32
sVhardware
p33
VRaspberryPI
p34
ss(Vdescription
p35
Varmel
p36
NVversatile
p37
tp38
(dp39
Vhardware-long
p40
VVersatile systems (PB, AB, Qemu)
p41
sVhardware
p42
VVersatile
p43
ss(Vimage
p44
Vi386
p45
NV686
p46
tp47
(dp48
Vrecommends
p49
Vlibc6-i686
p50
sVconfigs
p51
(lp52
Vkernelarch-x86/config-arch-32
p53
aVi386/config.686
p54
ass(Vimage
p55
Vs390x
p56
NVs390x
p57
tp58
(dp59
Vconfigs
p60
(lp61
Vkernelarch-s390/config-arch-64
p62
ass(Vimage
p63
g36
NVmarvell
p64
tp65
(dp66
Vbreaks
p67
Vflash-kernel (<< 3.57~)
p68
sVrecommends
p69
Vu-boot-tools
p70
sVcheck-size
p71
L2097080L
sVcheck-size-with-dtb
p72
I01
ss(Vimage
p73
Valpha
p74
tp75
(dp76
Vsuggests
p77
Vaboot, fdutils
p78
sVinstall-stem
p79
Vvmlinuz
p80
ss(Vimage
p81
Vmipsel
p82
NV5kc-malta
p83
tp84
(dp85
Vconfigs
p86
(lp87
Vkernelarch-mips/config.5kc-malta
p88
ass(Vbase
p89
Vpowerpc
p90
Vnone
p91
tp92
(dp93
Vflavours
p94
(lp95
Vpowerpc
p96
aVpowerpc-smp
p97
aVpowerpc64
p98
asVimplicit-flavour
p99
I01
ss(Vdescription
p100
tp101
(dp102
Vpart-long-up
p103
VThis kernel is not suitable for SMP (multi-processor,\u000amulti-core or hyper-threaded) systems.
p104
sVpart-long-xen
p105
VThis kernel also runs on a Xen hypervisor.\u000aIt supports both privileged (dom0) and unprivileged (domU) operation.
p106
ss(Vimage
p107
Vamd64
p108
NVamd64
p109
tp110
(dp111
Vconfigs
p112
(lp113
Vkernelarch-x86/config-arch-64
p114
ass(g89
g11
g91
tp115
(dp116
g94
(lp117
Vrpi
p118
aVrpi2
p119
asg99
I01
ss(Vdescription
p120
g108
NVamd64
p121
tp122
(dp123
Vhardware-long
p124
VPCs with AMD64, Intel 64 or VIA Nano processors
p125
sVhardware
p126
V64-bit PCs
p127
ss(Vrelations
p128
g56
tp129
(dp130
Vheaders%gcc-4.9
p131
Vlinux-compiler-gcc-4.9-s390
p132
ss(Vbase
p133
g108
Vnone
p134
tp135
(dp136
Vflavours
p137
(lp138
Vamd64
p139
ass(Vimage
p140
Vmips64
p141
tp142
(dp143
Vinstall-stem
p144
Vvmlinux
p145
ss(Vbuild
p146
g45
NV686-pae
p147
tp148
(dp149
Vdebug-info
p150
I01
ss(Vimage
p151
Vmips
p152
NVocteon
p153
tp154
(dp155
Vconfigs
p156
(lp157
Vkernelarch-mips/config.octeon
p158
ass(Vimage
p159
g90
NVpowerpc-smp
p160
tp161
(dp162
Vconfigs
p163
(lp164
Vpowerpc/config.powerpc
p165
aVpowerpc/config.powerpc-smp
p166
ass(Vrelations
p167
g108
tp168
(dp169
Vheaders%gcc-5
p170
Vlinux-compiler-gcc-5-x86
p171
ss(Vdescription
p172
g56
NVs390x
p173
tp174
(dp175
Vhardware
p176
VIBM zSeries
p177
ss(g89
g74
g91
tp178
(dp179
g94
(lp180
Valpha-generic
p181
aValpha-smp
p182
asg99
I01
ss(Vbase
p183
Vs390
p184
tp185
(dp186
Vfeaturesets
p187
(lp188
sVkernel-arch
p189
Vs390
p190
ss(Vrelations
p191
g11
tp192
(dp193
Vheaders%gcc-4.9
p194
Vlinux-compiler-gcc-4.9-arm
p195
ss(Vimage
p196
Vmips64el
p197
NVloongson-3
p198
tp199
(dp200
Vconfigs
p201
(lp202
Vkernelarch-mips/config.loongson-3
p203
ass(Vdescription
p204
g152
NV5kc-malta
p205
tp206
(dp207
Vhardware-long
p208
VMIPS Malta boards (64-bit)
p209
sVhardware
p210
VMIPS Malta (64-bit)
p211
ss(Vimage
p212
Vsparc64
p213
NVsparc64
p214
tp215
(dp216
Vconfigs
p217
(lp218
Vkernelarch-sparc/config-up
p219
ass(Vimage
p220
Vppc64el
p221
NVpowerpc64le
p222
tp223
(dp224
Vconfigs
p225
(lp226
Vkernelarch-powerpc/config-arch-64
p227
aVkernelarch-powerpc/config-arch-64-le
p228
ass(Vdescription
p229
g197
NVocteon
p230
tp231
(dp232
Vhardware-long
p233
VCavium Networks Octeon
p234
sVhardware
p235
VOcteon
p236
ss(Vbuild
p237
g20
tp238
(dp239
Vdebug-info
p240
I01
sVvdso
p241
I01
sVimage-file
p242
Varch/arm64/boot/Image
p243
ss(g89
g221
g91
tp244
(dp245
g94
(lp246
Vpowerpc64le
p247
asg99
I01
ss(Vbase
p248
g20
tp249
(dp250
Vfeaturesets
p251
(lp252
Vnone
p253
asVkernel-arch
p254
Varm64
p255
ss(Vdescription
p256
g74
NValpha-generic
p257
tp258
(dp259
Vhardware-long
p260
VDEC Alpha systems with extended kernel start address (Wildfire, Titan, Marvel)
p261
sVhardware
p262
VAlpha
p263
ss(Vbase
p264
g56
tp265
(dp266
Vfeaturesets
p267
(lp268
g91
asVkernel-arch
p269
Vs390
p270
ss(Vdescription
p271
Vsh4
p272
NVsh7785lcr
p273
tp274
(dp275
Vhardware-long
p276
VRenesas SH7785 reference board
p277
sVhardware
p278
Vsh7785lcr
p279
ss(Vimage
p280
g82
NVloongson-3
p281
tp282
(dp283
Vconfigs
p284
(lp285
Vkernelarch-mips/config.loongson-3
p286
ass(Vbuild
p287
g221
tp288
(dp289
Vvdso
p290
I01
sVimage-file
p291
Vvmlinux
p292
ss(Vbase
p293
Vhppa
p294
NVparisc64-smp
p295
tp296
(dp297
Vcflags
p298
V-fno-cse-follow-jumps
p299
sVoverride-host-type
p300
Vhppa64-linux-gnu
p301
ss(Vbuild
p302
g152
tp303
(dp304
Vimage-file
p305
Vvmlinux
p306
ss(Vimage
p307
tp308
(dp309
Vinitramfs-generators
p310
(lp311
Vinitramfs-tools
p312
aVinitramfs-fallback
p313
ass(Vimage
p314
g90
NVpowerpc64
p315
tp316
(dp317
Vconfigs
p318
(lp319
Vkernelarch-powerpc/config-arch-64
p320
aVkernelarch-powerpc/config-arch-64-be
p321
ass(Vbuild
p322
g272
tp323
(dp324
Vimage-file
p325
Varch/sh/boot/zImage
p326
ss(Vdescription
p327
g74
NValpha-smp
p328
tp329
(dp330
Vhardware-long
p331
VDEC Alpha SMP systems with extended kernel start address (Wildfire, Titan, Marvel)
p332
sVhardware
p333
VAlpha SMP
p334
ss(Vimage
p335
Vppc64
p336
NVpowerpc64
p337
tp338
(dp339
Vconfigs
p340
(lp341
Vkernelarch-powerpc/config-arch-64
p342
aVkernelarch-powerpc/config-arch-64-be
p343
ass(Vimage
p344
g213
tp345
(dp346
Vinstall-stem
p347
Vvmlinuz
p348
sVsuggests
p349
Vsilo, fdutils
p350
sVconfigs
p351
(lp352
ss(Vdescription
p353
g141
NV5kc-malta
p354
tp355
(dp356
Vhardware-long
p357
VMIPS Malta boards
p358
sVhardware
p359
VMIPS Malta
p360
ss(Vimage
p361
g45
NV686-pae
p362
tp363
(dp364
Vrecommends
p365
Vlibc6-i686
p366
sVconfigs
p367
(lp368
Vkernelarch-x86/config-arch-32
p369
aVi386/config.686-pae
p370
ass(Vimage
p371
g152
NV4kc-malta
p372
tp373
(dp374
Vconfigs
p375
(lp376
Vkernelarch-mips/config.4kc-malta
p377
ass(Vimage
p378
g5
tp379
(dp380
Vsuggests
p381
Vvmelilo, fdutils
p382
sVinstall-stem
p383
Vvmlinuz
p384
ss(Vimage
p385
g11
NVrpi2
p386
tp387
(dp388
Vconfigs
p389
(lp390
Varmhf/config.rpix
p391
aVarmhf/config.rpi2
p392
ass(Vdescription
p393
g108
g134
Vamd64
p394
tp395
(dp396
Vparts
p397
(lp398
Vxen
p399
ass(Vimage
p400
g11
NVrpi
p401
tp402
(dp403
Vconfigs
p404
(lp405
Varmhf/config.rpix
p406
aVarmhf/config.test
p407
aVarmhf/config.rpi
p408
ass(Vrelations
p409
tp410
(dp411
Vinitramfs-fallback
p412
Vlinux-initramfs-tool
p413
sVgcc-4.8
p414
Vgcc-4.8 <!stage1>
p415
sVgcc-5
p416
Vgcc-5 <!stage1>
p417
sVgcc-4.9
p418
Vgcc-4.9 <!stage1>
p419
sVinitramfs-tools
p420
Vinitramfs-tools (>= 0.110~)
p421
ss(Vdescription
p422
g221
NVpowerpc64le
p423
tp424
(dp425
Vhardware
p426
VLittle-endian 64-bit PowerPC
p427
ss(Vbuild
p428
Vpowerpcspe
p429
tp430
(dp431
Vvdso
p432
I01
sVimage-file
p433
Vvmlinux
p434
ss(Vdescription
p435
g82
NVloongson-3
p436
tp437
(dp438
Vhardware-long
p439
VLoongson 3A or 3B based systems (e.g. from Loongson or Lemote)
p440
sVhardware
p441
VLoongson 3A/3B
p442
ss(Vpackages
p443
tp444
(dp445
Vlibc-dev
p446
I00
ss(Vdescription
p447
g197
NVloongson-3
p448
tp449
(dp450
Vhardware-long
p451
VLoongson 3A or 3B based systems (e.g. from Loongson or Lemote)
p452
sVhardware
p453
VLoongson 3A/3B
p454
ss(Vbuild
p455
g74
tp456
(dp457
Vimage-file
p458
Varch/alpha/boot/vmlinux.gz
p459
ss(Vdescription
p460
g82
NVloongson-2e
p461
tp462
(dp463
Vhardware-long
p464
VLemote Loongson 2E systems
p465
sVhardware
p466
VLoongson 2E
p467
ss(Vdescription
p468
g141
NVocteon
p469
tp470
(dp471
Vhardware-long
p472
VCavium Networks Octeon
p473
sVhardware
p474
VOcteon
p475
ss(Vdescription
p476
NVrt
p477
tp478
(dp479
Vparts
p480
(lp481
Vrt
p482
asVpart-short-rt
p483
VPREEMPT_RT
p484
sVpart-long-rt
p485
VThis kernel includes the PREEMPT_RT realtime patch set.
p486
ss(Vdescription
p487
g294
NVparisc
p488
tp489
(dp490
Vhardware-long
p491
VHP PA-RISC 32-bit systems with max 4 GB RAM
p492
sVhardware
p493
V32-bit PA-RISC
p494
ss(Vbuild
p495
g36
tp496
(dp497
Vimage-file
p498
Varch/arm/boot/zImage
p499
ss(Vimage
p500
g82
NVloongson-2f
p501
tp502
(dp503
Vrecommends
p504
Vlibc6-loongson2f
p505
sVconfigs
p506
(lp507
Vkernelarch-mips/config.loongson-2f
p508
ass(Vimage
p509
g197
tp510
(dp511
Vinstall-stem
p512
Vvmlinux
p513
ss(Vimage
p514
g36
tp515
(dp516
Vinstall-stem
p517
Vvmlinuz
p518
sVsuggests
p519
Vfdutils
p520
sVconfigs
p521
(lp522
Vkernelarch-arm/config
p523
aVarmel/config
p524
ass(g89
g429
g91
tp525
(dp526
g94
(lp527
Vpowerpcspe
p528
asg99
I01
ss(Vdescription
p529
g82
NVloongson-2f
p530
tp531
(dp532
Vhardware-long
p533
VLemote Loongson 2F systems
p534
sVhardware
p535
VLoongson 2F
p536
ss(Vbase
p537
g272
tp538
(dp539
g267
(lp540
g91
asVkernel-arch
p541
Vsh
p542
ss(Vbuild
p543
g11
NVrpi2
p544
tp545
(dp546
Vimage-file
p547
Varch/arm/boot/zImagerpdt
p548
ss(Vrelations
p549
g36
tp550
(dp551
Vheaders%gcc-4.9
p552
Vlinux-compiler-gcc-4.9-arm
p553
ss(Vbase
p554
g141
tp555
(dp556
g267
(lp557
g91
asVkernel-arch
p558
Vmips
p559
ss(Vimage
p560
g197
NVocteon
p561
tp562
(dp563
Vconfigs
p564
(lp565
Vkernelarch-mips/config.octeon
p566
ass(g89
g336
g91
tp567
(dp568
g94
(lp569
Vpowerpc64
p570
asg99
I01
ss(Vabi
p571
Ng477
tp572
(dp573
Vignore-changes
p574
(lp575
V*
p576
ass(g89
g294
g91
tp577
(dp578
g94
(lp579
Vparisc
p580
aVparisc64-smp
p581
asg99
I01
ss(g89
g5
g91
tp582
(dp583
g94
(lp584
Vm68k
p585
asg99
I01
ss(g89
g82
g91
tp586
(dp587
g94
(lp588
V4kc-malta
p589
aV5kc-malta
p590
aVloongson-2e
p591
aVloongson-2f
p592
aVloongson-3
p593
asg99
I01
ss(Vbase
p594
NVrt
p595
tp596
(dp597
Venabled
p598
I01
ss(Vbase
p599
g36
tp600
(dp601
g267
(lp602
g91
asVkernel-arch
p603
Varm
p604
ss(g89
g56
g91
tp605
(dp606
g94
(lp607
Vs390x
p608
asg99
I01
ss(Vimage
p609
g429
tp610
(dp611
Vsuggests
p612
Vmkvmlinuz
p613
sVinstall-stem
p614
Vvmlinux
p615
ss(Vdescription
p616
g336
NVpowerpc64
p617
tp618
(dp619
Vhardware
p620
V64-bit PowerPC
p621
ss(Vabi
p622
g56
tp623
(dp624
Vignore-changes
p625
(lp626
Vmodule:arch/s390/kvm/kvm
p627
ass(Vimage
p628
g141
NV5kc-malta
p629
tp630
(dp631
Vconfigs
p632
(lp633
Vkernelarch-mips/config.5kc-malta
p634
ass(Vbuild
p635
g45
tp636
(dp637
Vvdso
p638
I01
sVimage-file
p639
Varch/x86/boot/bzImage
p640
ss(Vimage
p641
g272
NVsh7785lcr
p642
tp643
(dp644
Vrecommends
p645
Vu-boot-tools
p646
sVcheck-size
p647
L4194304L
ss(g89
g197
g91
tp648
(dp649
g94
(lp650
V5kc-malta
p651
aVloongson-3
p652
aVocteon
p653
asg99
I01
ss(Vimage
p654
g82
NV4kc-malta
p655
tp656
(dp657
Vconfigs
p658
(lp659
Vkernelarch-mips/config.4kc-malta
p660
ass(Vimage
p661
g108
tp662
(dp663
Vbreaks
p664
Vxserver-xorg-input-vmmouse (<< 1:13.0.99)
p665
sVinstall-stem
p666
Vvmlinuz
p667
sVbootloaders
p668
(lp669
Vgrub-pc
p670
aVgrub-efi
p671
aVextlinux
p672
asVconfigs
p673
(lp674
ss(Vbase
p675
g221
tp676
(dp677
g267
(lp678
g91
asVkernel-arch
p679
Vpowerpc
p680
ss(Vbuild
p681
g141
tp682
(dp683
Vimage-file
p684
Vvmlinux
p685
ss(Vimage
p686
g11
tp687
(dp688
Vinstall-stem
p689
Vvmlinuz
p690
sVsuggests
p691
Vfdutils
p692
sVconfigs
p693
(lp694
Vkernelarch-arm/config
p695
ass(Vimage
p696
g56
tp697
(dp698
Vinstall-stem
p699
Vvmlinuz
p700
sVbootloaders
p701
(lp702
Vs390-tools
p703
asVconfigs
p704
(lp705
ss(Vdescription
p706
g90
NVpowerpc
p707
tp708
(dp709
Vhardware
p710
Vuniprocessor 32-bit PowerPC
p711
ss(Vbuild
p712
g336
tp713
(dp714
Vvdso
p715
I01
sVimage-file
p716
Vvmlinux
p717
ss(Vimage
p718
g336
tp719
(dp720
Vinstall-stem
p721
Vvmlinux
p722
sVsuggests
p723
Vmkvmlinuz
p724
sVconfigs
p725
(lp726
ss(Vimage
p727
g213
NVsparc64-smp
p728
tp729
(dp730
Vconfigs
p731
(lp732
Vkernelarch-sparc/config-smp
p733
ass(Vdescription
p734
g294
NVparisc64-smp
p735
tp736
(dp737
Vhardware-long
p738
VHP PA-RISC 64-bit SMP systems with support for more than 4 GB RAM
p739
sVhardware
p740
Vmultiprocessor 64-bit PA-RISC
p741
ss(Vbase
p742
g45
Vnone
p743
tp744
(dp745
Vflavours
p746
(lp747
V686
p748
aV686-pae
p749
ass(Vdescription
p750
g90
NVpowerpc-smp
p751
tp752
(dp753
Vhardware
p754
Vmultiprocessor 32-bit PowerPC
p755
ss(Vbuild
p756
g11
tp757
(dp758
Vvdso
p759
I01
sVimage-file
p760
Varch/arm/boot/zImage
p761
ss(g89
g272
g91
tp762
(dp763
g94
(lp764
Vsh7751r
p765
aVsh7785lcr
p766
asg99
I01
ss(Vdescription
p767
g152
NVocteon
p768
tp769
(dp770
Vhardware-long
p771
VCavium Networks Octeon
p772
sVhardware
p773
VOcteon
p774
ss(Vdescription
p775
g82
NV5kc-malta
p776
tp777
(dp778
Vhardware-long
p779
VMIPS Malta boards (64-bit)
p780
sVhardware
p781
VMIPS Malta (64-bit)
p782
ss(Vdescription
p783
g11
NVarmmp
p784
tp785
(dp786
Vhardware-long
p787
VARMv7 multiplatform kernel. See\u000ahttps://wiki.debian.org/DebianKernel/ARMMP for details of supported\u000aplatforms
p788
sVhardware
p789
VARMv7 multiplatform compatible SoCs
p790
ss(Vdescription
p791
g36
NVmarvell
p792
tp793
(dp794
Vhardware-long
p795
VMarvell Kirkwood based systems (SheevaPlug, QNAP TS-119/TS-219, etc)\u000aand Orion 5181, 5182 and 5281 based systems (QNAP TS-109/TS-209, etc)
p796
sVhardware
p797
VMarvell Kirkwood/Orion
p798
ss(Vbase
p799
g429
tp800
(dp801
g267
(lp802
g91
asVkernel-arch
p803
Vpowerpc
p804
ss(Vimage
p805
g82
tp806
(dp807
Vinstall-stem
p808
Vvmlinux
p809
ss(Vdescription
p810
g5
NVm68k
p811
tp812
(dp813
Vhardware
p814
VMotorola MC68020+ family
p815
ss(Vbase
p816
g108
tp817
(dp818
Vcompiler
p819
Vgcc-5
p820
sVkernel-arch
p821
Vx86
p822
sVfeaturesets
p823
(lp824
Vnone
p825
aVrt
p826
ass(Vimage
p827
g82
NVloongson-2e
p828
tp829
(dp830
Vconfigs
p831
(lp832
Vkernelarch-mips/config.loongson-2e
p833
ass(Vbase
p834
Vx32
p835
tp836
(dp837
Vfeaturesets
p838
(lp839
sVkernel-arch
p840
Vx86
p841
ss(Vdescription
p842
g152
NV4kc-malta
p843
tp844
(dp845
Vhardware-long
p846
VMIPS Malta boards
p847
sVhardware
p848
VMIPS Malta
p849
ss(Vbuild
p850
g56
tp851
(dp852
Vvdso
p853
I01
sVimage-file
p854
Varch/s390/boot/image
p855
ss(Vbase
p856
g82
tp857
(dp858
g267
(lp859
g91
asVkernel-arch
p860
Vmips
p861
ss(g89
g213
g91
tp862
(dp863
g94
(lp864
Vsparc64
p865
aVsparc64-smp
p866
asg99
I01
ss(Vbase
p867
g11
tp868
(dp869
g267
(lp870
g91
asVkernel-arch
p871
Varm
p872
ss(Vabi
p873
tp874
(dp875
Vignore-changes
p876
(lp877
V__scm_destroy
p878
aV__scm_send
p879
aVscm_detach_fds
p880
aVscm_fp_dup
p881
aVefivar_validate
p882
aVget_thermal_instance
p883
aVinet_csk_reqsk_queue_add
p884
aVtcp_req_err
p885
aVmodule:drivers/gpu/drm/drm_kms_helper
p886
aVmodule:drivers/hv/hv_vmbus
p887
aVmodule:drivers/md/dm-snapshot
p888
aVmodule:drivers/mmc/host/sdhci
p889
aVmodule:drivers/mmc/host/sdhci*
p890
aVmodule:net/ceph/libceph
p891
asVabiname
p892
V1
p893
ss(Vimage
p894
g294
tp895
(dp896
Vsuggests
p897
Vpalo
p898
sVinstall-stem
p899
Vvmlinux
p900
ss(Vbase
p901
g197
tp902
(dp903
g267
(lp904
g91
asVkernel-arch
p905
Vmips
p906
ss(Vbuild
p907
g213
tp908
(dp909
Vimage-file
p910
Varch/sparc/boot/zImage
p911
ss(Vimage
p912
g197
NV5kc-malta
p913
tp914
(dp915
Vconfigs
p916
(lp917
Vkernelarch-mips/config.5kc-malta
p918
ass(Vdescription
p919
g11
NVrpi2
p920
tp921
(dp922
Vhardware-long
p923
VRaspberry PI 2
p924
sVhardware
p925
VRaspberryPI2
p926
ss(Vbase
p927
g294
tp928
(dp929
g267
(lp930
g91
asVkernel-arch
p931
Vparisc
p932
ss(Vbase
p933
g213
tp934
(dp935
g267
(lp936
g91
asVkernel-arch
p937
Vsparc
p938
ss(Vdescription
p939
g45
tp940
(dp941
Vpart-long-pae
p942
VThis kernel requires PAE (Physical Address Extension).\u000aThis feature is supported by the Intel Pentium Pro/II/III/4/4M/D, Xeon,\u000aCore and Atom; AMD Geode NX, Athlon (K7), Duron, Opteron, Sempron,\u000aTurion or Phenom; Transmeta Efficeon; VIA C7; and some other processors.
p943
ss(g89
g141
g91
tp944
(dp945
g94
(lp946
V5kc-malta
p947
aVocteon
p948
asg99
I01
ss(Vimage
p949
g221
tp950
(dp951
Vinstall-stem
p952
Vvmlinux
p953
sVsuggests
p954
Vmkvmlinuz
p955
sVconfigs
p956
(lp957
ss(Vbase
p958
Vor1k
p959
tp960
(dp961
Vfeaturesets
p962
(lp963
sVkernel-arch
p964
Vopenrisc
p965
ss(Vversion
p966
tp967
(dp968
Vabiname
p969
V4.4.0-1
p970
sVupstream
p971
V4.4
p972
sVsource
p973
V4.4.6-1+rpi5
p974
sVabiname_base
p975
V4.4.0
p976
ss(Vdescription
p977
g20
NVarm64
p978
tp979
(dp980
Vhardware
p981
V64-bit ARMv8 machines
p982
ss(Vimage
p983
g141
NVocteon
p984
tp985
(dp986
Vconfigs
p987
(lp988
Vkernelarch-mips/config.octeon
p989
ass(Vimage
p990
g152
NV5kc-malta
p991
tp992
(dp993
Vconfigs
p994
(lp995
Vkernelarch-mips/config.5kc-malta
p996
ass(Vbase
p997
g5
tp998
(dp999
Vcompiler
p1000
Vgcc-4.8
p1001
sVcflags
p1002
V-ffreestanding
p1003
sVkernel-arch
p1004
Vm68k
p1005
sg267
(lp1006
g91
ass(Vdescription
p1007
g45
NV686-pae
p1008
tp1009
(dp1010
Vparts
p1011
(lp1012
Vpae
p1013
asVhardware-long
p1014
VPCs with one or more processors supporting PAE
p1015
sVhardware
p1016
Vmodern PCs
p1017
ss(Vrelations
p1018
g294
tp1019
(dp1020
Vgcc-4.9
p1021
Vgcc-4.9 <!stage1>, binutils-hppa64 <!stage1>, gcc-4.9-hppa64 <!stage1>
p1022
ss(Vimage
p1023
g20
NVarm64
p1024
tp1025
(dp1026
s(Vbuild
p1027
g108
tp1028
(dp1029
Vdebug-info
p1030
I01
sVvdso
p1031
I01
sVimage-file
p1032
Varch/x86/boot/bzImage
p1033
ss(Vbase
p1034
tp1035
(dp1036
Vcompiler
p1037
Vgcc-4.9
p1038
sVfeaturesets
p1039
(lp1040
Vnone
p1041
aVrt
p1042
asVarches
p1043
(lp1044
Valpha
p1045
aVamd64
p1046
aVarm64
p1047
aVarmel
p1048
aVarmhf
p1049
aVhppa
p1050
aVi386
p1051
aVm68k
p1052
aVmips
p1053
aVmipsel
p1054
aVmips64
p1055
aVmips64el
p1056
aVor1k
p1057
aVpowerpc
p1058
aVpowerpcspe
p1059
aVppc64
p1060
aVppc64el
p1061
aVs390
p1062
aVs390x
p1063
aVsh4
p1064
aVsparc
p1065
aVsparc64
p1066
aVx32
p1067
ass(Vdescription
p1068
g82
NV4kc-malta
p1069
tp1070
(dp1071
Vhardware-long
p1072
VMIPS Malta boards
p1073
sVhardware
p1074
VMIPS Malta
p1075
ss(Vbase
p1076
g90
tp1077
(dp1078
g267
(lp1079
g91
asVkernel-arch
p1080
Vpowerpc
p1081
ss(Vdescription
p1082
g213
NVsparc64
p1083
tp1084
(dp1085
Vhardware
p1086
Vuniprocessor 64-bit UltraSPARC
p1087
ss(Vbase
p1088
g152
tp1089
(dp1090
g267
(lp1091
g91
asVkernel-arch
p1092
Vmips
p1093
ss(Vbase
p1094
g45
Vrt
p1095
tp1096
(dp1097
Vflavours
p1098
(lp1099
V686-pae
p1100
ass(Vbuild
p1101
g11
NVrpi
p1102
tp1103
(dp1104
Vimage-file
p1105
Varch/arm/boot/zImagerpdt
p1106
ss(Vdescription
p1107
g11
NVarmmp-lpae
p1108
tp1109
(dp1110
Vhardware-long
p1111
VARMv7 multiplatform kernel supporting LPAE. See\u000ahttps://wiki.debian.org/DebianKernel/ARMMP for details of supported\u000aplatforms.
p1112
sVhardware
p1113
VARMv7 multiplatform compatible SoCs supporting LPAE
p1114
ss(Vimage
p1115
g272
tp1116
(dp1117
Vsuggests
p1118
Vfdutils
p1119
sVinstall-stem
p1120
Vvmlinuz
p1121
ss(Vbase
p1122
g336
tp1123
(dp1124
g267
(lp1125
g91
asVkernel-arch
p1126
Vpowerpc
p1127
ss(Vdescription
p1128
g213
NVsparc64-smp
p1129
tp1130
(dp1131
Vhardware
p1132
Vmultiprocessor 64-bit UltraSPARC
p1133
ss(Vbase
p1134
g45
tp1135
(dp1136
Vcompiler
p1137
Vgcc-5
p1138
sVkernel-arch
p1139
Vx86
p1140
sVfeaturesets
p1141
(lp1142
Vnone
p1143
aVrt
p1144
ass(g89
g36
g91
tp1145
(dp1146
g94
(lp1147
Vmarvell
p1148
aVversatile
p1149
asg99
I01
ss(Vbuild
p1150
g90
tp1151
(dp1152
Vvdso
p1153
I01
sVimage-file
p1154
Vvmlinux
p1155
ss(Vxen
p1156
g108
g134
Vamd64
p1157
tp1158
(dp1159
Vflavours
p1160
(lp1161
Vamd64
p1162
ass(Vbase
p1163
Vsparc
p1164
tp1165
(dp1166
Vfeaturesets
p1167
(lp1168
sVkernel-arch
p1169
Vsparc
p1170
ss(g89
g152
g91
tp1171
(dp1172
g94
(lp1173
V4kc-malta
p1174
aV5kc-malta
p1175
aVocteon
p1176
asg99
I01
ss(Vbase
p1177
g74
tp1178
(dp1179
g267
(lp1180
g91
asVkernel-arch
p1181
Valpha
p1182
ss(Vdescription
p1183
g272
NVsh7751r
p1184
tp1185
(dp1186
Vhardware-long
p1187
VRenesas SH7751R R2D plus board
p1188
sVhardware
p1189
Vsh7751r
p1190
ss(Vbase
p1191
g108
Vrt
p1192
tp1193
(dp1194
Vflavours
p1195
(lp1196
Vamd64
p1197
ass(Vimage
p1198
g90
tp1199
(dp1200
Vinstall-stem
p1201
Vvmlinux
p1202
sVsuggests
p1203
Vmkvmlinuz
p1204
sVconfigs
p1205
(lp1206
ss(Vabi
p1207
g294
tp1208
(dp1209
Vignore-changes
p1210
(lp1211
Vdrm_dp_*
p1212
ass(Vbuild
p1213
g294
tp1214
(dp1215
Vimage-file
p1216
Vvmlinux
p1217
ss(Vimage
p1218
g20
tp1219
(dp1220
Vinstall-stem
p1221
Vvmlinuz
p1222
ss(Vbuild
p1223
g56
NVs390x
p1224
tp1225
(dp1226
Vdebug-info
p1227
I01
ss(Vimage
p1228
g152
tp1229
(dp1230
Vinstall-stem
p1231
Vvmlinux
p1232
ss(Vdescription
p1233
g197
NV5kc-malta
p1234
tp1235
(dp1236
Vhardware-long
p1237
VMIPS Malta boards
p1238
sVhardware
p1239
VMIPS Malta
p1240
ss(Vdescription
p1241
g429
tp1242
(dp1243
Vhardware
p1244
V32-bit PowerPC with SPE (instead of AltiVec) with SMP support
p1245
ss(Vrelations
p1246
g45
tp1247
(dp1248
Vheaders%gcc-5
p1249
Vlinux-compiler-gcc-5-x86
p1250
ss(Vbuild
p1251
g82
tp1252
(dp1253
Vimage-file
p1254
Vvmlinux
p1255
ss(Vdescription
p1256
g45
NV686
p1257
tp1258
(dp1259
Vhardware-long
p1260
VPCs with one or more processors not supporting PAE
p1261
sVhardware
p1262
Volder PCs
p1263
ss(Vdescription
p1264
g90
NVpowerpc64
p1265
tp1266
(dp1267
Vhardware
p1268
V64-bit PowerPC
p1269
ss(Vdescription
p1270
g45
g743
V686-pae
p1271
tp1272
(dp1273
Vparts
p1274
(lp1275
Vxen
p1276
ass(Vimage
p1277
g45
tp1278
(dp1279
Vbreaks
p1280
Vxserver-xorg-input-vmmouse (<< 1:13.0.99)
p1281
sVinstall-stem
p1282
Vvmlinuz
p1283
sVbootloaders
p1284
(lp1285
Vgrub-pc
p1286
aVextlinux
p1287
asVconfigs
p1288
(lp1289
ss(Vbuild
p1290
g197
tp1291
(dp1292
Vimage-file
p1293
Vvmlinux
p1294
sstp1295
Rp1296
.