ccopy_reg
_reconstructor
p0
(cdebian_linux.config
ConfigCore
p1
c__builtin__
dict
p2
(dp3
(Vbase
p4
Vhppa
p5
Vnone
p6
tp7
(dp8
Vflavours
p9
(lp10
Vparisc
p11
aVparisc64-smp
p12
asVimplicit-flavour
p13
I01
ss(g4
Vmips64el
p14
g6
tp15
(dp16
g9
(lp17
V5kc-malta
p18
aVloongson-3
p19
aVocteon
p20
asg13
I01
ss(Vbuild
p21
Vppc64el
p22
tp23
(dp24
Vimage-file
p25
Vvmlinux
p26
sVvdso
p27
I01
ss(Vimage
p28
Vmips64
p29
NV5kc-malta
p30
tp31
(dp32
Vconfigs
p33
(lp34
Vkernelarch-mips/config.5kc-malta
p35
ass(Vbase
p36
Vm68k
p37
tp38
(dp39
Vcompiler
p40
Vgcc-4.8
p41
sVcflags
p42
V-ffreestanding
p43
sVkernel-arch
p44
Vm68k
p45
sVfeaturesets
p46
(lp47
g6
ass(g4
Varmhf
p48
g6
tp49
(dp50
g9
(lp51
Vrpi
p52
aVrpi2
p53
asg13
I01
ss(Vimage
p54
Vamd64
p55
NVamd64
p56
tp57
(dp58
Vconfigs
p59
(lp60
Vkernelarch-x86/config-arch-64
p61
ass(Vbase
p62
g5
NVparisc64-smp
p63
tp64
(dp65
Voverride-host-type
p66
Vhppa64-linux-gnu
p67
sVcflags
p68
V-fno-cse-follow-jumps
p69
ss(Vbuild
p70
g55
tp71
(dp72
Vimage-file
p73
Varch/x86/boot/bzImage
p74
sVvdso
p75
I01
sVdebug-info
p76
I01
ss(g4
Vppc64
p77
g6
tp78
(dp79
g9
(lp80
Vpowerpc64
p81
asg13
I01
ss(Vdescription
p82
Vpowerpcspe
p83
tp84
(dp85
Vhardware
p86
V32-bit PowerPC with SPE (instead of AltiVec) with SMP support
p87
ss(Vbase
p88
g55
tp89
(dp90
Vcompiler
p91
Vgcc-5
p92
sVkernel-arch
p93
Vx86
p94
sVfeaturesets
p95
(lp96
Vnone
p97
aVrt
p98
ass(Vdescription
p99
Vmips
p100
NVocteon
p101
tp102
(dp103
Vhardware
p104
VOcteon
p105
sVhardware-long
p106
VCavium Networks Octeon
p107
ss(Vimage
p108
g29
tp109
(dp110
Vinstall-stem
p111
Vvmlinux
p112
ss(Vbase
p113
tp114
(dp115
Vcompiler
p116
Vgcc-4.9
p117
sVarches
p118
(lp119
Valpha
p120
aVamd64
p121
aVarm64
p122
aVarmel
p123
aVarmhf
p124
aVhppa
p125
aVi386
p126
aVm68k
p127
aVmips
p128
aVmipsel
p129
aVmips64
p130
aVmips64el
p131
aVor1k
p132
aVpowerpc
p133
aVpowerpcspe
p134
aVppc64
p135
aVppc64el
p136
aVs390
p137
aVs390x
p138
aVsh4
p139
aVsparc
p140
aVsparc64
p141
aVx32
p142
asVfeaturesets
p143
(lp144
Vnone
p145
aVrt
p146
ass(Vdescription
p147
Vpowerpc
p148
NVpowerpc64
p149
tp150
(dp151
Vhardware
p152
V64-bit PowerPC
p153
ss(Vimage
p154
g14
tp155
(dp156
Vinstall-stem
p157
Vvmlinux
p158
ss(Vabi
p159
NVrt
p160
tp161
(dp162
Vignore-changes
p163
(lp164
V*
p165
ass(Vimage
p166
Vsh4
p167
tp168
(dp169
Vsuggests
p170
Vfdutils
p171
sVinstall-stem
p172
Vvmlinuz
p173
ss(Vbase
p174
Valpha
p175
tp176
(dp177
Vkernel-arch
p178
Valpha
p179
sg46
(lp180
g6
ass(Vdescription
p181
Vi386
p182
NV686
p183
tp184
(dp185
Vhardware
p186
Volder PCs
p187
sVhardware-long
p188
VPCs with one or more processors not supporting PAE
p189
ss(Vdescription
p190
g182
NV686-pae
p191
tp192
(dp193
Vhardware
p194
Vmodern PCs
p195
sVparts
p196
(lp197
Vpae
p198
asVhardware-long
p199
VPCs with one or more processors supporting PAE
p200
ss(Vimage
p201
Vs390x
p202
tp203
(dp204
Vconfigs
p205
(lp206
sVinstall-stem
p207
Vvmlinuz
p208
sVbootloaders
p209
(lp210
Vs390-tools
p211
ass(g4
g100
g6
tp212
(dp213
g9
(lp214
V4kc-malta
p215
aV5kc-malta
p216
aVocteon
p217
asg13
I01
ss(Vimage
p218
g29
NVocteon
p219
tp220
(dp221
Vconfigs
p222
(lp223
Vkernelarch-mips/config.octeon
p224
ass(g4
Vmipsel
p225
g6
tp226
(dp227
g9
(lp228
V4kc-malta
p229
aV5kc-malta
p230
aVloongson-2e
p231
aVloongson-2f
p232
aVloongson-3
p233
asg13
I01
ss(Vimage
p234
g48
NVrpi
p235
tp236
(dp237
Vconfigs
p238
(lp239
Varmhf/config.rpix
p240
aVarmhf/config.test
p241
aVarmhf/config.rpi
p242
ass(Vimage
p243
g83
tp244
(dp245
Vsuggests
p246
Vmkvmlinuz
p247
sVinstall-stem
p248
Vvmlinux
p249
ss(Vimage
p250
g77
tp251
(dp252
Vconfigs
p253
(lp254
sVsuggests
p255
Vmkvmlinuz
p256
sVinstall-stem
p257
Vvmlinux
p258
ss(Vbase
p259
Vsparc
p260
tp261
(dp262
Vkernel-arch
p263
Vsparc
p264
sVfeaturesets
p265
(lp266
ss(Vrelations
p267
g55
tp268
(dp269
Vheaders%gcc-5
p270
Vlinux-compiler-gcc-5-x86
p271
ss(Vbuild
p272
g48
NVrpi
p273
tp274
(dp275
Vimage-file
p276
Varch/arm/boot/zImagerpdt
p277
ss(Vimage
p278
g148
NVpowerpc64
p279
tp280
(dp281
Vconfigs
p282
(lp283
Vkernelarch-powerpc/config-arch-64
p284
aVkernelarch-powerpc/config-arch-64-be
p285
ass(Vimage
p286
g202
NVs390x
p287
tp288
(dp289
Vconfigs
p290
(lp291
Vkernelarch-s390/config-arch-64
p292
ass(Vdescription
p293
g55
NVamd64
p294
tp295
(dp296
Vhardware
p297
V64-bit PCs
p298
sVhardware-long
p299
VPCs with AMD64, Intel 64 or VIA Nano processors
p300
ss(Vdescription
p301
Varmel
p302
NVversatile
p303
tp304
(dp305
Vhardware
p306
VVersatile
p307
sVhardware-long
p308
VVersatile systems (PB, AB, Qemu)
p309
ss(Vdescription
p310
g29
NV5kc-malta
p311
tp312
(dp313
Vhardware
p314
VMIPS Malta
p315
sVhardware-long
p316
VMIPS Malta boards
p317
ss(Vimage
p318
g225
tp319
(dp320
Vinstall-stem
p321
Vvmlinux
p322
ss(Vdescription
p323
g22
NVpowerpc64le
p324
tp325
(dp326
Vhardware
p327
VLittle-endian 64-bit PowerPC
p328
ss(Vdescription
p329
g202
NVs390x
p330
tp331
(dp332
Vhardware
p333
VIBM zSeries
p334
ss(Vbuild
p335
g37
tp336
(dp337
Vimage-file
p338
Vvmlinux.gz
p339
ss(Vdescription
p340
g182
Vnone
p341
V686-pae
p342
tp343
(dp344
Vparts
p345
(lp346
Vxen
p347
ass(Vimage
p348
g225
NVloongson-2e
p349
tp350
(dp351
Vconfigs
p352
(lp353
Vkernelarch-mips/config.loongson-2e
p354
ass(Vbase
p355
g100
tp356
(dp357
Vkernel-arch
p358
Vmips
p359
sg46
(lp360
g6
ass(Vdescription
p361
g48
NVrpi
p362
tp363
(dp364
Vhardware
p365
VRaspberryPI
p366
sVhardware-long
p367
VRaspberry PI
p368
ss(Vimage
p369
Vsparc64
p370
NVsparc64-smp
p371
tp372
(dp373
Vconfigs
p374
(lp375
Vkernelarch-sparc/config-smp
p376
ass(g4
g175
g6
tp377
(dp378
g9
(lp379
Valpha-generic
p380
aValpha-smp
p381
asg13
I01
ss(Vabi
p382
g5
tp383
(dp384
Vignore-changes
p385
(lp386
Vdrm_dp_*
p387
ass(Vdescription
p388
g225
NVloongson-2f
p389
tp390
(dp391
Vhardware
p392
VLoongson 2F
p393
sVhardware-long
p394
VLemote Loongson 2F systems
p395
ss(Vrelations
p396
g302
tp397
(dp398
Vheaders%gcc-4.9
p399
Vlinux-compiler-gcc-4.9-arm
p400
ss(Vimage
p401
g148
tp402
(dp403
Vconfigs
p404
(lp405
sVsuggests
p406
Vmkvmlinuz
p407
sVinstall-stem
p408
Vvmlinux
p409
ss(Vbase
p410
g5
tp411
(dp412
Vkernel-arch
p413
Vparisc
p414
sg46
(lp415
g6
ass(Vbase
p416
Vs390
p417
tp418
(dp419
Vkernel-arch
p420
Vs390
p421
sVfeaturesets
p422
(lp423
ss(g4
g370
g6
tp424
(dp425
g9
(lp426
Vsparc64
p427
aVsparc64-smp
p428
asg13
I01
ss(Vimage
p429
g167
NVsh7785lcr
p430
tp431
(dp432
Vrecommends
p433
Vu-boot-tools
p434
sVcheck-size
p435
L4194304L
ss(Vbuild
p436
g167
tp437
(dp438
Vimage-file
p439
Varch/sh/boot/zImage
p440
ss(Vdescription
p441
g48
NVarmmp-lpae
p442
tp443
(dp444
Vhardware
p445
VARMv7 multiplatform compatible SoCs supporting LPAE
p446
sVhardware-long
p447
VARMv7 multiplatform kernel supporting LPAE. See\u000ahttps://wiki.debian.org/DebianKernel/ARMMP for details of supported\u000aplatforms.
p448
ss(g4
g202
g6
tp449
(dp450
g9
(lp451
Vs390x
p452
asg13
I01
ss(Vimage
p453
g182
NV686
p454
tp455
(dp456
Vconfigs
p457
(lp458
Vkernelarch-x86/config-arch-32
p459
aVi386/config.686
p460
asVrecommends
p461
Vlibc6-i686
p462
ss(Vdescription
p463
g5
NVparisc64-smp
p464
tp465
(dp466
Vhardware
p467
Vmultiprocessor 64-bit PA-RISC
p468
sVhardware-long
p469
VHP PA-RISC 64-bit SMP systems with support for more than 4 GB RAM
p470
ss(Vrelations
p471
g5
tp472
(dp473
Vgcc-4.9
p474
Vgcc-4.9 <!stage1>, binutils-hppa64 <!stage1>, gcc-4.9-hppa64 <!stage1>
p475
ss(Vbuild
p476
g225
tp477
(dp478
Vimage-file
p479
Vvmlinux
p480
ss(Vdescription
p481
g225
NVloongson-2e
p482
tp483
(dp484
Vhardware
p485
VLoongson 2E
p486
sVhardware-long
p487
VLemote Loongson 2E systems
p488
ss(Vbase
p489
Varm64
p490
Vnone
p491
tp492
(dp493
Vflavours
p494
(lp495
Varm64
p496
ass(Vdescription
p497
g148
NVpowerpc
p498
tp499
(dp500
Vhardware
p501
Vuniprocessor 32-bit PowerPC
p502
ss(Vrelations
p503
g202
tp504
(dp505
Vheaders%gcc-4.9
p506
Vlinux-compiler-gcc-4.9-s390
p507
ss(g4
g167
g6
tp508
(dp509
g9
(lp510
Vsh7751r
p511
aVsh7785lcr
p512
asg13
I01
ss(Vimage
p513
g48
NVrpi2
p514
tp515
(dp516
Vconfigs
p517
(lp518
Varmhf/config.rpix
p519
aVarmhf/config.rpi2
p520
ass(Vimage
p521
g370
tp522
(dp523
Vconfigs
p524
(lp525
sVsuggests
p526
Vsilo, fdutils
p527
sVinstall-stem
p528
Vvmlinuz
p529
ss(Vrelations
p530
tp531
(dp532
Vgcc-4.8
p533
Vgcc-4.8 <!stage1>
p534
sVinitramfs-fallback
p535
Vlinux-initramfs-tool
p536
sVgcc-5
p537
Vgcc-5 <!stage1>
p538
sVinitramfs-tools
p539
Vinitramfs-tools (>= 0.110~)
p540
sVgcc-4.9
p541
Vgcc-4.9 <!stage1>
p542
ss(Vdescription
p543
g48
NVrpi2
p544
tp545
(dp546
Vhardware
p547
VRaspberryPI2
p548
sVhardware-long
p549
VRaspberry PI 2
p550
ss(Vdescription
p551
g490
NVarm64
p552
tp553
(dp554
Vhardware
p555
V64-bit ARMv8 machines
p556
ss(g4
g148
g6
tp557
(dp558
g9
(lp559
Vpowerpc
p560
aVpowerpc-smp
p561
aVpowerpc64
p562
asg13
I01
ss(Vimage
p563
g37
tp564
(dp565
Vsuggests
p566
Vvmelilo, fdutils
p567
sVinstall-stem
p568
Vvmlinuz
p569
ss(Vbase
p570
g167
tp571
(dp572
Vkernel-arch
p573
Vsh
p574
sg46
(lp575
g6
ass(Vimage
p576
g48
tp577
(dp578
Vconfigs
p579
(lp580
Vkernelarch-arm/config
p581
asVsuggests
p582
Vfdutils
p583
sVinstall-stem
p584
Vvmlinuz
p585
ss(Vimage
p586
g48
NVarmmp-lpae
p587
tp588
(dp589
Vconfigs
p590
(lp591
Varmhf/config.armmp
p592
aVarmhf/config.lpae
p593
ass(Vimage
p594
g77
NVpowerpc64
p595
tp596
(dp597
Vconfigs
p598
(lp599
Vkernelarch-powerpc/config-arch-64
p600
aVkernelarch-powerpc/config-arch-64-be
p601
ass(Vdescription
p602
g14
NVocteon
p603
tp604
(dp605
Vhardware
p606
VOcteon
p607
sVhardware-long
p608
VCavium Networks Octeon
p609
ss(Vbase
p610
Vor1k
p611
tp612
(dp613
Vkernel-arch
p614
Vopenrisc
p615
sVfeaturesets
p616
(lp617
ss(Vbuild
p618
g182
NV686-pae
p619
tp620
(dp621
Vdebug-info
p622
I01
ss(Vbase
p623
g225
tp624
(dp625
Vkernel-arch
p626
Vmips
p627
sg46
(lp628
g6
ass(Vimage
p629
g14
NVloongson-3
p630
tp631
(dp632
Vconfigs
p633
(lp634
Vkernelarch-mips/config.loongson-3
p635
ass(Vimage
p636
tp637
(dp638
Vinitramfs-generators
p639
(lp640
Vinitramfs-tools
p641
aVinitramfs-fallback
p642
ass(Vbase
p643
g490
tp644
(dp645
Vkernel-arch
p646
Varm64
p647
sVfeaturesets
p648
(lp649
Vnone
p650
ass(Vimage
p651
g22
tp652
(dp653
Vconfigs
p654
(lp655
sVsuggests
p656
Vmkvmlinuz
p657
sVinstall-stem
p658
Vvmlinux
p659
ss(Vimage
p660
g14
NVocteon
p661
tp662
(dp663
Vconfigs
p664
(lp665
Vkernelarch-mips/config.octeon
p666
ass(Vdescription
p667
g370
NVsparc64-smp
p668
tp669
(dp670
Vhardware
p671
Vmultiprocessor 64-bit UltraSPARC
p672
ss(Vbuild
p673
g29
tp674
(dp675
Vimage-file
p676
Vvmlinux
p677
ss(Vbase
p678
g83
tp679
(dp680
Vkernel-arch
p681
Vpowerpc
p682
sg46
(lp683
g6
ass(Vimage
p684
g302
NVmarvell
p685
tp686
(dp687
Vcheck-size-with-dtb
p688
I01
sVbreaks
p689
Vflash-kernel (<< 3.57~)
p690
sVrecommends
p691
Vu-boot-tools
p692
sVcheck-size
p693
L2097080L
ss(Vdescription
p694
g29
NVocteon
p695
tp696
(dp697
Vhardware
p698
VOcteon
p699
sVhardware-long
p700
VCavium Networks Octeon
p701
ss(Vbase
p702
Vx32
p703
tp704
(dp705
Vkernel-arch
p706
Vx86
p707
sVfeaturesets
p708
(lp709
ss(Vbase
p710
g182
tp711
(dp712
Vcompiler
p713
Vgcc-5
p714
sVkernel-arch
p715
Vx86
p716
sVfeaturesets
p717
(lp718
Vnone
p719
aVrt
p720
ass(Vimage
p721
g225
NV4kc-malta
p722
tp723
(dp724
Vconfigs
p725
(lp726
Vkernelarch-mips/config.4kc-malta
p727
ass(Vdescription
p728
g175
NValpha-smp
p729
tp730
(dp731
Vhardware
p732
VAlpha SMP
p733
sVhardware-long
p734
VDEC Alpha SMP systems with extended kernel start address (Wildfire, Titan, Marvel)
p735
ss(Vimage
p736
g55
tp737
(dp738
Vconfigs
p739
(lp740
sVbreaks
p741
Vxserver-xorg-input-vmmouse (<< 1:13.0.99)
p742
sVinstall-stem
p743
Vvmlinuz
p744
sVbootloaders
p745
(lp746
Vgrub-pc
p747
aVgrub-efi
p748
aVextlinux
p749
ass(Vbase
p750
g29
tp751
(dp752
Vkernel-arch
p753
Vmips
p754
sg46
(lp755
g6
ass(Vbase
p756
g148
tp757
(dp758
Vkernel-arch
p759
Vpowerpc
p760
sg46
(lp761
g6
ass(Vimage
p762
g225
NVloongson-3
p763
tp764
(dp765
Vconfigs
p766
(lp767
Vkernelarch-mips/config.loongson-3
p768
ass(Vimage
p769
g100
NV4kc-malta
p770
tp771
(dp772
Vconfigs
p773
(lp774
Vkernelarch-mips/config.4kc-malta
p775
ass(Vimage
p776
g182
NV686-pae
p777
tp778
(dp779
Vconfigs
p780
(lp781
Vkernelarch-x86/config-arch-32
p782
aVi386/config.686-pae
p783
asVrecommends
p784
Vlibc6-i686
p785
ss(Vdescription
p786
g225
NV4kc-malta
p787
tp788
(dp789
Vhardware
p790
VMIPS Malta
p791
sVhardware-long
p792
VMIPS Malta boards
p793
ss(Vimage
p794
g148
NVpowerpc-smp
p795
tp796
(dp797
Vconfigs
p798
(lp799
Vpowerpc/config.powerpc
p800
aVpowerpc/config.powerpc-smp
p801
ass(Vpackages
p802
tp803
(dp804
Vlibc-dev
p805
I00
ss(Vimage
p806
g175
tp807
(dp808
Vsuggests
p809
Vaboot, fdutils
p810
sVinstall-stem
p811
Vvmlinuz
p812
ss(g4
g83
g6
tp813
(dp814
g9
(lp815
Vpowerpcspe
p816
asg13
I01
ss(Vdescription
p817
g167
NVsh7751r
p818
tp819
(dp820
Vhardware
p821
Vsh7751r
p822
sVhardware-long
p823
VRenesas SH7751R R2D plus board
p824
ss(Vdescription
p825
g55
Vnone
p826
Vamd64
p827
tp828
(dp829
Vparts
p830
(lp831
Vxen
p832
ass(Vdescription
p833
g100
NV4kc-malta
p834
tp835
(dp836
Vhardware
p837
VMIPS Malta
p838
sVhardware-long
p839
VMIPS Malta boards
p840
ss(Vimage
p841
g22
NVpowerpc64le
p842
tp843
(dp844
Vconfigs
p845
(lp846
Vkernelarch-powerpc/config-arch-64
p847
aVkernelarch-powerpc/config-arch-64-le
p848
ass(Vbase
p849
NVrt
p850
tp851
(dp852
Venabled
p853
I01
ss(Vbase
p854
g302
tp855
(dp856
Vkernel-arch
p857
Varm
p858
sg46
(lp859
g6
ass(Vimage
p860
g490
NVarm64
p861
tp862
(dp863
s(Vbuild
p864
g5
tp865
(dp866
Vimage-file
p867
Vvmlinux
p868
ss(Vdescription
p869
tp870
(dp871
Vpart-long-up
p872
VThis kernel is not suitable for SMP (multi-processor,\u000amulti-core or hyper-threaded) systems.
p873
sVpart-long-xen
p874
VThis kernel also runs on a Xen hypervisor.\u000aIt supports both privileged (dom0) and unprivileged (domU) operation.
p875
ss(Vbuild
p876
g182
tp877
(dp878
Vimage-file
p879
Varch/x86/boot/bzImage
p880
sVvdso
p881
I01
ss(Vimage
p882
g100
NVocteon
p883
tp884
(dp885
Vconfigs
p886
(lp887
Vkernelarch-mips/config.octeon
p888
ass(Vbase
p889
g182
Vrt
p890
tp891
(dp892
Vflavours
p893
(lp894
V686-pae
p895
ass(Vbuild
p896
g490
tp897
(dp898
Vimage-file
p899
Varch/arm64/boot/Image
p900
sVvdso
p901
I01
sVdebug-info
p902
I01
ss(Vbase
p903
g14
tp904
(dp905
Vkernel-arch
p906
Vmips
p907
sg46
(lp908
g6
ass(Vbase
p909
g22
tp910
(dp911
Vkernel-arch
p912
Vpowerpc
p913
sg46
(lp914
g6
ass(Vbuild
p915
g83
tp916
(dp917
Vimage-file
p918
Vvmlinux
p919
sVvdso
p920
I01
ss(g4
g22
g6
tp921
(dp922
g9
(lp923
Vpowerpc64le
p924
asg13
I01
ss(Vbuild
p925
g77
tp926
(dp927
Vimage-file
p928
Vvmlinux
p929
sVvdso
p930
I01
ss(Vbase
p931
g202
tp932
(dp933
Vkernel-arch
p934
Vs390
p935
sg46
(lp936
g6
ass(Vdescription
p937
Ng160
tp938
(dp939
Vpart-short-rt
p940
VPREEMPT_RT
p941
sVparts
p942
(lp943
Vrt
p944
asVpart-long-rt
p945
VThis kernel includes the PREEMPT_RT realtime patch set.
p946
ss(Vimage
p947
g5
tp948
(dp949
Vsuggests
p950
Vpalo
p951
sVinstall-stem
p952
Vvmlinux
p953
ss(Vbase
p954
g370
tp955
(dp956
Vkernel-arch
p957
Vsparc
p958
sg46
(lp959
g6
ass(g4
g302
g6
tp960
(dp961
g9
(lp962
Vmarvell
p963
aVversatile
p964
asg13
I01
ss(Vbuild
p965
g302
tp966
(dp967
Vimage-file
p968
Varch/arm/boot/zImage
p969
ss(Vdescription
p970
g148
NVpowerpc-smp
p971
tp972
(dp973
Vhardware
p974
Vmultiprocessor 32-bit PowerPC
p975
ss(Vbuild
p976
g202
tp977
(dp978
Vimage-file
p979
Varch/s390/boot/image
p980
sVvdso
p981
I01
ss(Vabi
p982
g202
tp983
(dp984
Vignore-changes
p985
(lp986
Vmodule:arch/s390/kvm/kvm
p987
ass(Vbase
p988
g55
Vrt
p989
tp990
(dp991
Vflavours
p992
(lp993
Vamd64
p994
ass(Vbase
p995
g55
g826
tp996
(dp997
Vflavours
p998
(lp999
Vamd64
p1000
ass(Vbuild
p1001
g100
tp1002
(dp1003
Vimage-file
p1004
Vvmlinux
p1005
ss(Vdescription
p1006
g302
NVmarvell
p1007
tp1008
(dp1009
Vhardware
p1010
VMarvell Kirkwood/Orion
p1011
sVhardware-long
p1012
VMarvell Kirkwood based systems (SheevaPlug, QNAP TS-119/TS-219, etc)\u000aand Orion 5181, 5182 and 5281 based systems (QNAP TS-109/TS-209, etc)
p1013
ss(Vdescription
p1014
g175
NValpha-generic
p1015
tp1016
(dp1017
Vhardware
p1018
VAlpha
p1019
sVhardware-long
p1020
VDEC Alpha systems with extended kernel start address (Wildfire, Titan, Marvel)
p1021
ss(Vdescription
p1022
g14
NV5kc-malta
p1023
tp1024
(dp1025
Vhardware
p1026
VMIPS Malta
p1027
sVhardware-long
p1028
VMIPS Malta boards
p1029
ss(Vdescription
p1030
g77
NVpowerpc64
p1031
tp1032
(dp1033
Vhardware
p1034
V64-bit PowerPC
p1035
ss(Vbase
p1036
g77
tp1037
(dp1038
Vkernel-arch
p1039
Vpowerpc
p1040
sg46
(lp1041
g6
ass(Vbuild
p1042
g14
tp1043
(dp1044
Vimage-file
p1045
Vvmlinux
p1046
ss(Vxen
p1047
g55
g826
Vamd64
p1048
tp1049
(dp1050
Vflavours
p1051
(lp1052
Vamd64
p1053
ass(Vimage
p1054
g100
tp1055
(dp1056
Vinstall-stem
p1057
Vvmlinux
p1058
ss(Vdescription
p1059
g5
NVparisc
p1060
tp1061
(dp1062
Vhardware
p1063
V32-bit PA-RISC
p1064
sVhardware-long
p1065
VHP PA-RISC 32-bit systems with max 4 GB RAM
p1066
ss(Vimage
p1067
g370
NVsparc64
p1068
tp1069
(dp1070
Vconfigs
p1071
(lp1072
Vkernelarch-sparc/config-up
p1073
ass(Vimage
p1074
g302
tp1075
(dp1076
Vconfigs
p1077
(lp1078
Vkernelarch-arm/config
p1079
aVarmel/config
p1080
asVsuggests
p1081
Vfdutils
p1082
sVinstall-stem
p1083
Vvmlinuz
p1084
ss(Vversion
p1085
tp1086
(dp1087
Vupstream
p1088
V4.4
p1089
sVabiname
p1090
V4.4.0-1
p1091
sVabiname_base
p1092
V4.4.0
p1093
sVsource
p1094
V4.4.6-1+rpi9
p1095
ss(Vimage
p1096
g14
NV5kc-malta
p1097
tp1098
(dp1099
Vconfigs
p1100
(lp1101
Vkernelarch-mips/config.5kc-malta
p1102
ass(Vdescription
p1103
g182
tp1104
(dp1105
Vpart-long-pae
p1106
VThis kernel requires PAE (Physical Address Extension).\u000aThis feature is supported by the Intel Pentium Pro/II/III/4/4M/D, Xeon,\u000aCore and Atom; AMD Geode NX, Athlon (K7), Duron, Opteron, Sempron,\u000aTurion or Phenom; Transmeta Efficeon; VIA C7; and some other processors.
p1107
ss(Vbase
p1108
g182
g341
tp1109
(dp1110
Vflavours
p1111
(lp1112
V686
p1113
aV686-pae
p1114
ass(Vdescription
p1115
g37
NVm68k
p1116
tp1117
(dp1118
Vhardware
p1119
VMotorola MC68020+ family
p1120
ss(Vdescription
p1121
g14
NVloongson-3
p1122
tp1123
(dp1124
Vhardware
p1125
VLoongson 3A/3B
p1126
sVhardware-long
p1127
VLoongson 3A or 3B based systems (e.g. from Loongson or Lemote)
p1128
ss(Vdescription
p1129
g370
NVsparc64
p1130
tp1131
(dp1132
Vhardware
p1133
Vuniprocessor 64-bit UltraSPARC
p1134
ss(Vbuild
p1135
g148
tp1136
(dp1137
Vimage-file
p1138
Vvmlinux
p1139
sVvdso
p1140
I01
ss(Vimage
p1141
g490
tp1142
(dp1143
Vinstall-stem
p1144
Vvmlinuz
p1145
ss(Vimage
p1146
g100
NV5kc-malta
p1147
tp1148
(dp1149
Vconfigs
p1150
(lp1151
Vkernelarch-mips/config.5kc-malta
p1152
ass(Vbuild
p1153
g48
tp1154
(dp1155
Vimage-file
p1156
Varch/arm/boot/zImage
p1157
sVvdso
p1158
I01
ss(Vimage
p1159
g225
NV5kc-malta
p1160
tp1161
(dp1162
Vconfigs
p1163
(lp1164
Vkernelarch-mips/config.5kc-malta
p1165
ass(Vimage
p1166
g182
tp1167
(dp1168
Vconfigs
p1169
(lp1170
sVbreaks
p1171
Vxserver-xorg-input-vmmouse (<< 1:13.0.99)
p1172
sVinstall-stem
p1173
Vvmlinuz
p1174
sVbootloaders
p1175
(lp1176
Vgrub-pc
p1177
aVextlinux
p1178
ass(Vdescription
p1179
g100
NV5kc-malta
p1180
tp1181
(dp1182
Vhardware
p1183
VMIPS Malta (64-bit)
p1184
sVhardware-long
p1185
VMIPS Malta boards (64-bit)
p1186
ss(Vbase
p1187
g48
tp1188
(dp1189
Vkernel-arch
p1190
Varm
p1191
sg46
(lp1192
g6
ass(g4
g29
g6
tp1193
(dp1194
g9
(lp1195
V5kc-malta
p1196
aVocteon
p1197
asg13
I01
ss(g4
g37
g6
tp1198
(dp1199
g9
(lp1200
Vm68k
p1201
asg13
I01
ss(Vabi
p1202
tp1203
(dp1204
Vignore-changes
p1205
(lp1206
V__scm_destroy
p1207
aV__scm_send
p1208
aVscm_detach_fds
p1209
aVscm_fp_dup
p1210
aVefivar_validate
p1211
aVget_thermal_instance
p1212
aVinet_csk_reqsk_queue_add
p1213
aVtcp_req_err
p1214
aVmodule:drivers/gpu/drm/drm_kms_helper
p1215
aVmodule:drivers/hv/hv_vmbus
p1216
aVmodule:drivers/md/dm-snapshot
p1217
aVmodule:drivers/mmc/host/sdhci
p1218
aVmodule:drivers/mmc/host/sdhci*
p1219
aVmodule:net/ceph/libceph
p1220
asVabiname
p1221
V1
p1222
ss(Vimage
p1223
g225
NVloongson-2f
p1224
tp1225
(dp1226
Vconfigs
p1227
(lp1228
Vkernelarch-mips/config.loongson-2f
p1229
asVrecommends
p1230
Vlibc6-loongson2f
p1231
ss(Vrelations
p1232
g48
tp1233
(dp1234
Vheaders%gcc-4.9
p1235
Vlinux-compiler-gcc-4.9-arm
p1236
ss(Vdescription
p1237
g225
NV5kc-malta
p1238
tp1239
(dp1240
Vhardware
p1241
VMIPS Malta (64-bit)
p1242
sVhardware-long
p1243
VMIPS Malta boards (64-bit)
p1244
ss(Vbuild
p1245
g202
NVs390x
p1246
tp1247
(dp1248
Vdebug-info
p1249
I01
ss(Vbuild
p1250
g48
NVrpi2
p1251
tp1252
(dp1253
Vimage-file
p1254
Varch/arm/boot/zImagerpdt
p1255
ss(Vdescription
p1256
g167
NVsh7785lcr
p1257
tp1258
(dp1259
Vhardware
p1260
Vsh7785lcr
p1261
sVhardware-long
p1262
VRenesas SH7785 reference board
p1263
ss(Vdescription
p1264
g48
NVarmmp
p1265
tp1266
(dp1267
Vhardware
p1268
VARMv7 multiplatform compatible SoCs
p1269
sVhardware-long
p1270
VARMv7 multiplatform kernel. See\u000ahttps://wiki.debian.org/DebianKernel/ARMMP for details of supported\u000aplatforms
p1271
ss(Vbuild
p1272
g370
tp1273
(dp1274
Vimage-file
p1275
Varch/sparc/boot/zImage
p1276
ss(Vbuild
p1277
g175
tp1278
(dp1279
Vimage-file
p1280
Varch/alpha/boot/vmlinux.gz
p1281
ss(Vdescription
p1282
g225
NVloongson-3
p1283
tp1284
(dp1285
Vhardware
p1286
VLoongson 3A/3B
p1287
sVhardware-long
p1288
VLoongson 3A or 3B based systems (e.g. from Loongson or Lemote)
p1289
ss(Vrelations
p1290
g182
tp1291
(dp1292
Vheaders%gcc-5
p1293
Vlinux-compiler-gcc-5-x86
p1294
sstp1295
Rp1296
.