ccopy_reg
_reconstructor
p0
(cdebian_linux.config
ConfigCore
p1
c__builtin__
dict
p2
(dp3
(Vbase
p4
Varm64
p5
Vnone
p6
tp7
(dp8
Vflavours
p9
(lp10
Varm64
p11
ass(Vbase
p12
Vamd64
p13
Vrt
p14
tp15
(dp16
Vflavours
p17
(lp18
Vamd64
p19
ass(Vdescription
p20
Varmhf
p21
NVarmmp-lpae
p22
tp23
(dp24
Vhardware-long
p25
VARMv7 multiplatform kernel supporting LPAE. See\u000ahttps://wiki.debian.org/DebianKernel/ARMMP for details of supported\u000aplatforms.
p26
sVhardware
p27
VARMv7 multiplatform compatible SoCs supporting LPAE
p28
ss(Vdescription
p29
g21
NVarmmp
p30
tp31
(dp32
Vhardware-long
p33
VARMv7 multiplatform kernel. See\u000ahttps://wiki.debian.org/DebianKernel/ARMMP for details of supported\u000aplatforms
p34
sVhardware
p35
VARMv7 multiplatform compatible SoCs
p36
ss(Vdescription
p37
Vpowerpc
p38
NVpowerpc64
p39
tp40
(dp41
Vhardware
p42
V64-bit PowerPC
p43
ss(Vdescription
p44
g13
NVamd64
p45
tp46
(dp47
Vhardware-long
p48
VPCs with AMD64, Intel 64 or VIA Nano processors
p49
sVhardware
p50
V64-bit PCs
p51
ss(Vbase
p52
Vsparc64
p53
tp54
(dp55
Vfeaturesets
p56
(lp57
Vnone
p58
asVkernel-arch
p59
Vsparc
p60
ss(Vimage
p61
Vm68k
p62
tp63
(dp64
Vinstall-stem
p65
Vvmlinuz
p66
sVsuggests
p67
Vvmelilo, fdutils
p68
ss(Vimage
p69
Vmips64el
p70
NV5kc-malta
p71
tp72
(dp73
Vconfigs
p74
(lp75
Vkernelarch-mips/config.5kc-malta
p76
ass(Vbuild
p77
Vmipsel
p78
tp79
(dp80
Vimage-file
p81
Vvmlinux
p82
ss(Vimage
p83
Vppc64el
p84
tp85
(dp86
Vconfigs
p87
(lp88
sVinstall-stem
p89
Vvmlinux
p90
sVsuggests
p91
Vmkvmlinuz
p92
ss(Vdescription
p93
Vsh4
p94
NVsh7785lcr
p95
tp96
(dp97
Vhardware-long
p98
VRenesas SH7785 reference board
p99
sVhardware
p100
Vsh7785lcr
p101
ss(Vbuild
p102
g70
tp103
(dp104
Vimage-file
p105
Vvmlinux
p106
ss(Vdescription
p107
Vi386
p108
Vnone
p109
V686-pae
p110
tp111
(dp112
Vparts
p113
(lp114
Vxen
p115
ass(Vimage
p116
g5
NVarm64
p117
tp118
(dp119
s(Vdescription
p120
g5
NVarm64
p121
tp122
(dp123
Vhardware
p124
V64-bit ARMv8 machines
p125
ss(Vdescription
p126
Vmips64
p127
NVocteon
p128
tp129
(dp130
Vhardware-long
p131
VCavium Networks Octeon
p132
sVhardware
p133
VOcteon
p134
ss(Vimage
p135
g78
NVloongson-2f
p136
tp137
(dp138
Vconfigs
p139
(lp140
Vkernelarch-mips/config.loongson-2f
p141
asVrecommends
p142
Vlibc6-loongson2f
p143
ss(Vimage
p144
Vhppa
p145
tp146
(dp147
Vinstall-stem
p148
Vvmlinux
p149
sVsuggests
p150
Vpalo
p151
ss(Vbase
p152
g127
tp153
(dp154
g56
(lp155
g58
asVkernel-arch
p156
Vmips
p157
ss(Vrelations
p158
g145
tp159
(dp160
Vgcc-4.9
p161
Vgcc-4.9 <!stage1>, binutils-hppa64 <!stage1>, gcc-4.9-hppa64 <!stage1>
p162
ss(Vbuild
p163
g108
NV686-pae
p164
tp165
(dp166
Vdebug-info
p167
I01
ss(Vbuild
p168
g94
tp169
(dp170
Vimage-file
p171
Varch/sh/boot/zImage
p172
ss(Vbase
p173
Vppc64
p174
tp175
(dp176
g56
(lp177
g58
asVkernel-arch
p178
Vpowerpc
p179
ss(Vdescription
p180
g53
NVsparc64-smp
p181
tp182
(dp183
Vhardware
p184
Vmultiprocessor 64-bit UltraSPARC
p185
ss(Vdescription
p186
Varmel
p187
NVmarvell
p188
tp189
(dp190
Vhardware-long
p191
VMarvell Kirkwood based systems (SheevaPlug, QNAP TS-119/TS-219, etc)\u000aand Orion 5181, 5182 and 5281 based systems (QNAP TS-109/TS-209, etc)
p192
sVhardware
p193
VMarvell Kirkwood/Orion
p194
ss(Vimage
p195
g21
tp196
(dp197
Vconfigs
p198
(lp199
Vkernelarch-arm/config
p200
asVinstall-stem
p201
Vvmlinuz
p202
sVsuggests
p203
Vfdutils
p204
ss(Vbase
p205
g145
NVparisc64-smp
p206
tp207
(dp208
Vcflags
p209
V-fno-cse-follow-jumps
p210
sVoverride-host-type
p211
Vhppa64-linux-gnu
p212
ss(Vimage
p213
g53
tp214
(dp215
Vconfigs
p216
(lp217
sVinstall-stem
p218
Vvmlinuz
p219
sVsuggests
p220
Vsilo, fdutils
p221
ss(Vbase
p222
g13
Vnone
p223
tp224
(dp225
Vflavours
p226
(lp227
Vamd64
p228
ass(Vbase
p229
g62
tp230
(dp231
Vcflags
p232
V-ffreestanding
p233
sg56
(lp234
g58
asVcompiler
p235
Vgcc-4.8
p236
sVkernel-arch
p237
Vm68k
p238
ss(Vbase
p239
Valpha
p240
g58
tp241
(dp242
Vimplicit-flavour
p243
I01
sVflavours
p244
(lp245
Valpha-generic
p246
aValpha-smp
p247
ass(Vbuild
p248
g21
tp249
(dp250
Vimage-file
p251
Varch/arm/boot/zImage
p252
sVvdso
p253
I01
ss(Vabi
p254
tp255
(dp256
Vabiname
p257
V1
p258
sVignore-changes
p259
(lp260
V__scm_destroy
p261
aV__scm_send
p262
aVscm_detach_fds
p263
aVscm_fp_dup
p264
aVefivar_validate
p265
aVget_thermal_instance
p266
aVinet_csk_reqsk_queue_add
p267
aVtcp_req_err
p268
aVmodule:drivers/gpu/drm/drm_kms_helper
p269
aVmodule:drivers/hv/hv_vmbus
p270
aVmodule:drivers/md/dm-snapshot
p271
aVmodule:drivers/mmc/host/sdhci
p272
aVmodule:drivers/mmc/host/sdhci*
p273
aVmodule:net/ceph/libceph
p274
ass(g239
g145
g58
tp275
(dp276
g243
I01
sg244
(lp277
Vparisc
p278
aVparisc64-smp
p279
ass(Vbase
p280
g108
g109
tp281
(dp282
Vflavours
p283
(lp284
V686
p285
aV686-pae
p286
ass(Vdescription
p287
g187
NVversatile
p288
tp289
(dp290
Vhardware-long
p291
VVersatile systems (PB, AB, Qemu)
p292
sVhardware
p293
VVersatile
p294
ss(Vdescription
p295
g108
NV686-pae
p296
tp297
(dp298
Vhardware-long
p299
VPCs with one or more processors supporting PAE
p300
sVhardware
p301
Vmodern PCs
p302
sVparts
p303
(lp304
Vpae
p305
ass(Vxen
p306
g13
g223
Vamd64
p307
tp308
(dp309
Vflavours
p310
(lp311
Vamd64
p312
ass(Vimage
p313
g174
tp314
(dp315
Vconfigs
p316
(lp317
sVinstall-stem
p318
Vvmlinux
p319
sVsuggests
p320
Vmkvmlinuz
p321
ss(Vimage
p322
g53
NVsparc64-smp
p323
tp324
(dp325
Vconfigs
p326
(lp327
Vkernelarch-sparc/config-smp
p328
ass(Vbuild
p329
g240
tp330
(dp331
Vimage-file
p332
Varch/alpha/boot/vmlinux.gz
p333
ss(Vimage
p334
g21
NVrpi
p335
tp336
(dp337
Vconfigs
p338
(lp339
Varmhf/config.rpix
p340
aVarmhf/config.rpi
p341
ass(Vdescription
p342
g78
NVloongson-3
p343
tp344
(dp345
Vhardware-long
p346
VLoongson 3A or 3B based systems (e.g. from Loongson or Lemote)
p347
sVhardware
p348
VLoongson 3A/3B
p349
ss(Vdescription
p350
g38
NVpowerpc-smp
p351
tp352
(dp353
Vhardware
p354
Vmultiprocessor 32-bit PowerPC
p355
ss(Vimage
p356
Vmips
p357
NVocteon
p358
tp359
(dp360
Vconfigs
p361
(lp362
Vkernelarch-mips/config.octeon
p363
ass(Vbase
p364
Vsparc
p365
tp366
(dp367
Vfeaturesets
p368
(lp369
sVkernel-arch
p370
Vsparc
p371
ss(Vimage
p372
g70
NVloongson-3
p373
tp374
(dp375
Vconfigs
p376
(lp377
Vkernelarch-mips/config.loongson-3
p378
ass(Vimage
p379
g108
NV686-pae
p380
tp381
(dp382
Vconfigs
p383
(lp384
Vkernelarch-x86/config-arch-32
p385
aVi386/config.686-pae
p386
asVrecommends
p387
Vlibc6-i686
p388
ss(Vdescription
p389
g357
NV4kc-malta
p390
tp391
(dp392
Vhardware-long
p393
VMIPS Malta boards
p394
sVhardware
p395
VMIPS Malta
p396
ss(Vbuild
p397
g108
tp398
(dp399
Vimage-file
p400
Varch/x86/boot/bzImage
p401
sVvdso
p402
I01
ss(Vbase
p403
g84
tp404
(dp405
g56
(lp406
g58
asVkernel-arch
p407
Vpowerpc
p408
ss(Vrelations
p409
g108
tp410
(dp411
Vheaders%gcc-5
p412
Vlinux-compiler-gcc-5-x86
p413
ss(Vimage
p414
g357
tp415
(dp416
Vinstall-stem
p417
Vvmlinux
p418
ss(Vimage
p419
g78
NVloongson-2e
p420
tp421
(dp422
Vconfigs
p423
(lp424
Vkernelarch-mips/config.loongson-2e
p425
ass(g239
Vs390x
p426
g58
tp427
(dp428
g243
I01
sg244
(lp429
Vs390x
p430
ass(Vbase
p431
g187
tp432
(dp433
g56
(lp434
g58
asVkernel-arch
p435
Varm
p436
ss(Vdescription
p437
g70
NVocteon
p438
tp439
(dp440
Vhardware-long
p441
VCavium Networks Octeon
p442
sVhardware
p443
VOcteon
p444
ss(Vbuild
p445
g127
tp446
(dp447
Vimage-file
p448
Vvmlinux
p449
ss(Vrelations
p450
g13
tp451
(dp452
Vheaders%gcc-5
p453
Vlinux-compiler-gcc-5-x86
p454
ss(g239
g127
g58
tp455
(dp456
g243
I01
sg244
(lp457
V5kc-malta
p458
aVocteon
p459
ass(Vimage
p460
g13
NVamd64
p461
tp462
(dp463
Vconfigs
p464
(lp465
Vkernelarch-x86/config-arch-64
p466
ass(Vimage
p467
g94
NVsh7785lcr
p468
tp469
(dp470
Vrecommends
p471
Vu-boot-tools
p472
sVcheck-size
p473
L4194304L
ss(Vimage
p474
g94
tp475
(dp476
Vinstall-stem
p477
Vvmlinuz
p478
sVsuggests
p479
Vfdutils
p480
ss(Vrelations
p481
g426
tp482
(dp483
Vheaders%gcc-4.9
p484
Vlinux-compiler-gcc-4.9-s390
p485
ss(Vimage
p486
g70
tp487
(dp488
Vinstall-stem
p489
Vvmlinux
p490
ss(Vdescription
p491
g62
NVm68k
p492
tp493
(dp494
Vhardware
p495
VMotorola MC68020+ family
p496
ss(Vrelations
p497
g21
tp498
(dp499
Vheaders%gcc-4.9
p500
Vlinux-compiler-gcc-4.9-arm
p501
ss(Vdescription
p502
g240
NValpha-smp
p503
tp504
(dp505
Vhardware-long
p506
VDEC Alpha SMP systems with extended kernel start address (Wildfire, Titan, Marvel)
p507
sVhardware
p508
VAlpha SMP
p509
ss(Vimage
p510
g5
tp511
(dp512
Vinstall-stem
p513
Vvmlinuz
p514
ss(Vimage
p515
g78
NV5kc-malta
p516
tp517
(dp518
Vconfigs
p519
(lp520
Vkernelarch-mips/config.5kc-malta
p521
ass(Vdescription
p522
g357
NVocteon
p523
tp524
(dp525
Vhardware-long
p526
VCavium Networks Octeon
p527
sVhardware
p528
VOcteon
p529
ss(g239
g62
g58
tp530
(dp531
g243
I01
sg244
(lp532
Vm68k
p533
ass(g239
g174
g58
tp534
(dp535
g243
I01
sg244
(lp536
Vpowerpc64
p537
ass(Vrelations
p538
tp539
(dp540
Vinitramfs-tools
p541
Vinitramfs-tools (>= 0.110~)
p542
sVinitramfs-fallback
p543
Vlinux-initramfs-tool
p544
sVgcc-4.9
p545
Vgcc-4.9 <!stage1>
p546
sVgcc-4.8
p547
Vgcc-4.8 <!stage1>
p548
sVgcc-5
p549
Vgcc-5 <!stage1>
p550
ss(Vdescription
p551
g174
NVpowerpc64
p552
tp553
(dp554
Vhardware
p555
V64-bit PowerPC
p556
ss(Vbuild
p557
g21
NVrpi2
p558
tp559
(dp560
Vimage-file
p561
Varch/arm/boot/zImagerpdt
p562
ss(Vdescription
p563
g70
NVloongson-3
p564
tp565
(dp566
Vhardware-long
p567
VLoongson 3A or 3B based systems (e.g. from Loongson or Lemote)
p568
sVhardware
p569
VLoongson 3A/3B
p570
ss(Vbuild
p571
g21
NVrpi
p572
tp573
(dp574
Vimage-file
p575
Varch/arm/boot/zImagerpdt
p576
ss(Vrelations
p577
g187
tp578
(dp579
Vheaders%gcc-4.9
p580
Vlinux-compiler-gcc-4.9-arm
p581
ss(Vimage
p582
g127
NVocteon
p583
tp584
(dp585
Vconfigs
p586
(lp587
Vkernelarch-mips/config.octeon
p588
ass(Vdescription
p589
g78
NVloongson-2e
p590
tp591
(dp592
Vhardware-long
p593
VLemote Loongson 2E systems
p594
sVhardware
p595
VLoongson 2E
p596
ss(Vdescription
p597
g145
NVparisc64-smp
p598
tp599
(dp600
Vhardware-long
p601
VHP PA-RISC 64-bit SMP systems with support for more than 4 GB RAM
p602
sVhardware
p603
Vmultiprocessor 64-bit PA-RISC
p604
ss(Vbase
p605
g240
tp606
(dp607
g56
(lp608
g58
asVkernel-arch
p609
Valpha
p610
ss(Vbuild
p611
g187
tp612
(dp613
Vimage-file
p614
Varch/arm/boot/zImage
p615
ss(Vbuild
p616
g174
tp617
(dp618
Vimage-file
p619
Vvmlinux
p620
sVvdso
p621
I01
ss(Vdescription
p622
g53
NVsparc64
p623
tp624
(dp625
Vhardware
p626
Vuniprocessor 64-bit UltraSPARC
p627
ss(Vimage
p628
g187
tp629
(dp630
Vconfigs
p631
(lp632
Vkernelarch-arm/config
p633
aVarmel/config
p634
asVinstall-stem
p635
Vvmlinuz
p636
sVsuggests
p637
Vfdutils
p638
ss(Vdescription
p639
g78
NV5kc-malta
p640
tp641
(dp642
Vhardware-long
p643
VMIPS Malta boards (64-bit)
p644
sVhardware
p645
VMIPS Malta (64-bit)
p646
ss(Vbuild
p647
g53
tp648
(dp649
Vimage-file
p650
Varch/sparc/boot/zImage
p651
ss(Vdescription
p652
NVrt
p653
tp654
(dp655
Vpart-long-rt
p656
VThis kernel includes the PREEMPT_RT realtime patch set.
p657
sVpart-short-rt
p658
VPREEMPT_RT
p659
sVparts
p660
(lp661
Vrt
p662
ass(Vimage
p663
Vpowerpcspe
p664
tp665
(dp666
Vinstall-stem
p667
Vvmlinux
p668
sVsuggests
p669
Vmkvmlinuz
p670
ss(Vbase
p671
g426
tp672
(dp673
g56
(lp674
g58
asVkernel-arch
p675
Vs390
p676
ss(Vimage
p677
g426
NVs390x
p678
tp679
(dp680
Vconfigs
p681
(lp682
Vkernelarch-s390/config-arch-64
p683
ass(Vdescription
p684
g38
NVpowerpc
p685
tp686
(dp687
Vhardware
p688
Vuniprocessor 32-bit PowerPC
p689
ss(Vimage
p690
g84
NVpowerpc64le
p691
tp692
(dp693
Vconfigs
p694
(lp695
Vkernelarch-powerpc/config-arch-64
p696
aVkernelarch-powerpc/config-arch-64-le
p697
ass(Vdescription
p698
g84
NVpowerpc64le
p699
tp700
(dp701
Vhardware
p702
VLittle-endian 64-bit PowerPC
p703
ss(Vimage
p704
g174
NVpowerpc64
p705
tp706
(dp707
Vconfigs
p708
(lp709
Vkernelarch-powerpc/config-arch-64
p710
aVkernelarch-powerpc/config-arch-64-be
p711
ass(g239
g94
g58
tp712
(dp713
g243
I01
sg244
(lp714
Vsh7751r
p715
aVsh7785lcr
p716
ass(Vbase
p717
Vs390
p718
tp719
(dp720
Vfeaturesets
p721
(lp722
sVkernel-arch
p723
Vs390
p724
ss(Vimage
p725
tp726
(dp727
Vinitramfs-generators
p728
(lp729
Vinitramfs-tools
p730
aVinitramfs-fallback
p731
ass(Vbuild
p732
g5
tp733
(dp734
Vdebug-info
p735
I01
sVimage-file
p736
Varch/arm64/boot/Image
p737
sVvdso
p738
I01
ss(g239
g84
g58
tp739
(dp740
g243
I01
sg244
(lp741
Vpowerpc64le
p742
ass(Vimage
p743
g127
NV5kc-malta
p744
tp745
(dp746
Vconfigs
p747
(lp748
Vkernelarch-mips/config.5kc-malta
p749
ass(Vbase
p750
Vor1k
p751
tp752
(dp753
Vfeaturesets
p754
(lp755
sVkernel-arch
p756
Vopenrisc
p757
ss(Vimage
p758
g108
NV686
p759
tp760
(dp761
Vconfigs
p762
(lp763
Vkernelarch-x86/config-arch-32
p764
aVi386/config.686
p765
asVrecommends
p766
Vlibc6-i686
p767
ss(Vimage
p768
g38
NVpowerpc-smp
p769
tp770
(dp771
Vconfigs
p772
(lp773
Vpowerpc/config.powerpc
p774
aVpowerpc/config.powerpc-smp
p775
ass(Vimage
p776
g13
tp777
(dp778
Vconfigs
p779
(lp780
sVbootloaders
p781
(lp782
Vgrub-pc
p783
aVgrub-efi
p784
aVextlinux
p785
asVinstall-stem
p786
Vvmlinuz
p787
sVbreaks
p788
Vxserver-xorg-input-vmmouse (<< 1:13.0.99)
p789
ss(Vdescription
p790
g240
NValpha-generic
p791
tp792
(dp793
Vhardware-long
p794
VDEC Alpha systems with extended kernel start address (Wildfire, Titan, Marvel)
p795
sVhardware
p796
VAlpha
p797
ss(Vbuild
p798
g145
tp799
(dp800
Vimage-file
p801
Vvmlinux
p802
ss(Vbuild
p803
g62
tp804
(dp805
Vimage-file
p806
Vvmlinux.gz
p807
ss(Vdescription
p808
g21
NVrpi
p809
tp810
(dp811
Vhardware-long
p812
VRaspberry PI
p813
sVhardware
p814
VRaspberryPI
p815
ss(Vimage
p816
g78
NVloongson-3
p817
tp818
(dp819
Vconfigs
p820
(lp821
Vkernelarch-mips/config.loongson-3
p822
ass(Vbase
p823
g145
tp824
(dp825
g56
(lp826
g58
asVkernel-arch
p827
Vparisc
p828
ss(Vimage
p829
g108
tp830
(dp831
Vconfigs
p832
(lp833
sVbootloaders
p834
(lp835
Vgrub-pc
p836
aVextlinux
p837
asVinstall-stem
p838
Vvmlinuz
p839
sVbreaks
p840
Vxserver-xorg-input-vmmouse (<< 1:13.0.99)
p841
ss(Vbase
p842
g38
tp843
(dp844
g56
(lp845
g58
asVkernel-arch
p846
Vpowerpc
p847
ss(Vbuild
p848
g426
tp849
(dp850
Vimage-file
p851
Varch/s390/boot/image
p852
sVvdso
p853
I01
ss(Vbase
p854
g94
tp855
(dp856
g56
(lp857
g58
asVkernel-arch
p858
Vsh
p859
ss(Vbuild
p860
g84
tp861
(dp862
Vimage-file
p863
Vvmlinux
p864
sVvdso
p865
I01
ss(Vimage
p866
g38
NVpowerpc64
p867
tp868
(dp869
Vconfigs
p870
(lp871
Vkernelarch-powerpc/config-arch-64
p872
aVkernelarch-powerpc/config-arch-64-be
p873
ass(Vdescription
p874
g357
NV5kc-malta
p875
tp876
(dp877
Vhardware-long
p878
VMIPS Malta boards (64-bit)
p879
sVhardware
p880
VMIPS Malta (64-bit)
p881
ss(Vdescription
p882
g145
NVparisc
p883
tp884
(dp885
Vhardware-long
p886
VHP PA-RISC 32-bit systems with max 4 GB RAM
p887
sVhardware
p888
V32-bit PA-RISC
p889
ss(g239
g357
g58
tp890
(dp891
g243
I01
sg244
(lp892
V4kc-malta
p893
aV5kc-malta
p894
aVocteon
p895
ass(Vversion
p896
tp897
(dp898
Vsource
p899
V4.4.6-1+rpi3
p900
sVabiname_base
p901
V4.4.0
p902
sVabiname
p903
V4.4.0-1
p904
sVupstream
p905
V4.4
p906
ss(Vbase
p907
Vx32
p908
tp909
(dp910
Vfeaturesets
p911
(lp912
sVkernel-arch
p913
Vx86
p914
ss(Vimage
p915
g240
tp916
(dp917
Vinstall-stem
p918
Vvmlinuz
p919
sVsuggests
p920
Vaboot, fdutils
p921
ss(Vimage
p922
g38
tp923
(dp924
Vconfigs
p925
(lp926
sVinstall-stem
p927
Vvmlinux
p928
sVsuggests
p929
Vmkvmlinuz
p930
ss(Vimage
p931
g357
NV5kc-malta
p932
tp933
(dp934
Vconfigs
p935
(lp936
Vkernelarch-mips/config.5kc-malta
p937
ass(Vimage
p938
g53
NVsparc64
p939
tp940
(dp941
Vconfigs
p942
(lp943
Vkernelarch-sparc/config-up
p944
ass(g239
g187
g58
tp945
(dp946
g243
I01
sg244
(lp947
Vmarvell
p948
aVversatile
p949
ass(Vbuild
p950
g426
NVs390x
p951
tp952
(dp953
Vdebug-info
p954
I01
ss(Vabi
p955
g426
tp956
(dp957
Vignore-changes
p958
(lp959
Vmodule:arch/s390/kvm/kvm
p960
ass(Vdescription
p961
g664
tp962
(dp963
Vhardware
p964
V32-bit PowerPC with SPE (instead of AltiVec) with SMP support
p965
ss(Vbase
p966
g13
tp967
(dp968
Vfeaturesets
p969
(lp970
Vnone
p971
aVrt
p972
asVcompiler
p973
Vgcc-5
p974
sVkernel-arch
p975
Vx86
p976
ss(Vbase
p977
tp978
(dp979
Varches
p980
(lp981
Valpha
p982
aVamd64
p983
aVarm64
p984
aVarmel
p985
aVarmhf
p986
aVhppa
p987
aVi386
p988
aVm68k
p989
aVmips
p990
aVmipsel
p991
aVmips64
p992
aVmips64el
p993
aVor1k
p994
aVpowerpc
p995
aVpowerpcspe
p996
aVppc64
p997
aVppc64el
p998
aVs390
p999
aVs390x
p1000
aVsh4
p1001
aVsparc
p1002
aVsparc64
p1003
aVx32
p1004
asVfeaturesets
p1005
(lp1006
Vnone
p1007
aVrt
p1008
asVcompiler
p1009
Vgcc-4.9
p1010
ss(Vbuild
p1011
g664
tp1012
(dp1013
Vimage-file
p1014
Vvmlinux
p1015
sVvdso
p1016
I01
ss(Vdescription
p1017
tp1018
(dp1019
Vpart-long-xen
p1020
VThis kernel also runs on a Xen hypervisor.\u000aIt supports both privileged (dom0) and unprivileged (domU) operation.
p1021
sVpart-long-up
p1022
VThis kernel is not suitable for SMP (multi-processor,\u000amulti-core or hyper-threaded) systems.
p1023
ss(Vimage
p1024
g357
NV4kc-malta
p1025
tp1026
(dp1027
Vconfigs
p1028
(lp1029
Vkernelarch-mips/config.4kc-malta
p1030
ass(Vimage
p1031
g21
NVarmmp-lpae
p1032
tp1033
(dp1034
Vconfigs
p1035
(lp1036
Varmhf/config.armmp
p1037
aVarmhf/config.lpae
p1038
ass(Vabi
p1039
Ng653
tp1040
(dp1041
Vignore-changes
p1042
(lp1043
V*
p1044
ass(Vbase
p1045
g108
tp1046
(dp1047
Vfeaturesets
p1048
(lp1049
Vnone
p1050
aVrt
p1051
asVcompiler
p1052
Vgcc-5
p1053
sVkernel-arch
p1054
Vx86
p1055
ss(Vbuild
p1056
g38
tp1057
(dp1058
Vimage-file
p1059
Vvmlinux
p1060
sVvdso
p1061
I01
ss(Vimage
p1062
g78
NV4kc-malta
p1063
tp1064
(dp1065
Vconfigs
p1066
(lp1067
Vkernelarch-mips/config.4kc-malta
p1068
ass(Vdescription
p1069
g13
g223
Vamd64
p1070
tp1071
(dp1072
Vparts
p1073
(lp1074
Vxen
p1075
ass(Vdescription
p1076
g108
tp1077
(dp1078
Vpart-long-pae
p1079
VThis kernel requires PAE (Physical Address Extension).\u000aThis feature is supported by the Intel Pentium Pro/II/III/4/4M/D, Xeon,\u000aCore and Atom; AMD Geode NX, Athlon (K7), Duron, Opteron, Sempron,\u000aTurion or Phenom; Transmeta Efficeon; VIA C7; and some other processors.
p1080
ss(g239
g53
g58
tp1081
(dp1082
g243
I01
sg244
(lp1083
Vsparc64
p1084
aVsparc64-smp
p1085
ass(Vabi
p1086
g145
tp1087
(dp1088
Vignore-changes
p1089
(lp1090
Vdrm_dp_*
p1091
ass(Vbase
p1092
g70
tp1093
(dp1094
g56
(lp1095
g58
asVkernel-arch
p1096
Vmips
p1097
ss(g239
g664
g58
tp1098
(dp1099
g243
I01
sg244
(lp1100
Vpowerpcspe
p1101
ass(Vimage
p1102
g187
NVmarvell
p1103
tp1104
(dp1105
Vrecommends
p1106
Vu-boot-tools
p1107
sVcheck-size
p1108
L2097080L
sVbreaks
p1109
Vflash-kernel (<< 3.57~)
p1110
sVcheck-size-with-dtb
p1111
I01
ss(Vimage
p1112
g426
tp1113
(dp1114
Vconfigs
p1115
(lp1116
sVbootloaders
p1117
(lp1118
Vs390-tools
p1119
asVinstall-stem
p1120
Vvmlinuz
p1121
ss(Vdescription
p1122
g108
NV686
p1123
tp1124
(dp1125
Vhardware-long
p1126
VPCs with one or more processors not supporting PAE
p1127
sVhardware
p1128
Volder PCs
p1129
ss(Vdescription
p1130
g70
NV5kc-malta
p1131
tp1132
(dp1133
Vhardware-long
p1134
VMIPS Malta boards
p1135
sVhardware
p1136
VMIPS Malta
p1137
ss(Vimage
p1138
g21
NVrpi2
p1139
tp1140
(dp1141
Vconfigs
p1142
(lp1143
Varmhf/config.rpix
p1144
aVarmhf/config.rpi2
p1145
ass(g239
g78
g58
tp1146
(dp1147
g243
I01
sg244
(lp1148
V4kc-malta
p1149
aV5kc-malta
p1150
aVloongson-2e
p1151
aVloongson-2f
p1152
aVloongson-3
p1153
ass(Vbuild
p1154
g357
tp1155
(dp1156
Vimage-file
p1157
Vvmlinux
p1158
ss(Vbuild
p1159
g13
tp1160
(dp1161
Vdebug-info
p1162
I01
sVimage-file
p1163
Varch/x86/boot/bzImage
p1164
sVvdso
p1165
I01
ss(Vdescription
p1166
g78
NV4kc-malta
p1167
tp1168
(dp1169
Vhardware-long
p1170
VMIPS Malta boards
p1171
sVhardware
p1172
VMIPS Malta
p1173
ss(Vimage
p1174
g127
tp1175
(dp1176
Vinstall-stem
p1177
Vvmlinux
p1178
ss(Vdescription
p1179
g426
NVs390x
p1180
tp1181
(dp1182
Vhardware
p1183
VIBM zSeries
p1184
ss(g239
g38
g58
tp1185
(dp1186
g243
I01
sg244
(lp1187
Vpowerpc
p1188
aVpowerpc-smp
p1189
aVpowerpc64
p1190
ass(Vimage
p1191
g78
tp1192
(dp1193
Vinstall-stem
p1194
Vvmlinux
p1195
ss(Vdescription
p1196
g21
NVrpi2
p1197
tp1198
(dp1199
Vhardware-long
p1200
VRaspberry PI 2
p1201
sVhardware
p1202
VRaspberryPI2
p1203
ss(g239
g21
g58
tp1204
(dp1205
g243
I01
sg244
(lp1206
Vrpi
p1207
aVrpi2
p1208
ass(Vdescription
p1209
g94
NVsh7751r
p1210
tp1211
(dp1212
Vhardware-long
p1213
VRenesas SH7751R R2D plus board
p1214
sVhardware
p1215
Vsh7751r
p1216
ss(Vbase
p1217
g664
tp1218
(dp1219
g56
(lp1220
g58
asVkernel-arch
p1221
Vpowerpc
p1222
ss(Vpackages
p1223
tp1224
(dp1225
Vlibc-dev
p1226
I00
ss(Vbase
p1227
g21
tp1228
(dp1229
g56
(lp1230
g58
asVkernel-arch
p1231
Varm
p1232
ss(Vbase
p1233
g108
Vrt
p1234
tp1235
(dp1236
Vflavours
p1237
(lp1238
V686-pae
p1239
ass(Vimage
p1240
g70
NVocteon
p1241
tp1242
(dp1243
Vconfigs
p1244
(lp1245
Vkernelarch-mips/config.octeon
p1246
ass(Vbase
p1247
g78
tp1248
(dp1249
g56
(lp1250
g58
asVkernel-arch
p1251
Vmips
p1252
ss(Vdescription
p1253
g127
NV5kc-malta
p1254
tp1255
(dp1256
Vhardware-long
p1257
VMIPS Malta boards
p1258
sVhardware
p1259
VMIPS Malta
p1260
ss(g239
g70
g58
tp1261
(dp1262
g243
I01
sg244
(lp1263
V5kc-malta
p1264
aVloongson-3
p1265
aVocteon
p1266
ass(Vdescription
p1267
g78
NVloongson-2f
p1268
tp1269
(dp1270
Vhardware-long
p1271
VLemote Loongson 2F systems
p1272
sVhardware
p1273
VLoongson 2F
p1274
ss(Vbase
p1275
g357
tp1276
(dp1277
g56
(lp1278
g58
asVkernel-arch
p1279
Vmips
p1280
ss(Vbase
p1281
g5
tp1282
(dp1283
Vfeaturesets
p1284
(lp1285
Vnone
p1286
asVkernel-arch
p1287
Varm64
p1288
ss(Vbase
p1289
NVrt
p1290
tp1291
(dp1292
Venabled
p1293
I01
sstp1294
Rp1295
.