ccopy_reg
_reconstructor
p0
(cdebian_linux.config
ConfigCore
p1
c__builtin__
dict
p2
(dp3
(Vdescription
p4
Vsh4
p5
NVsh7785lcr
p6
tp7
(dp8
Vhardware-long
p9
VRenesas SH7785 reference board
p10
sVhardware
p11
Vsh7785lcr
p12
ss(Vdescription
p13
Vmipsel
p14
NV4kc-malta
p15
tp16
(dp17
Vhardware-long
p18
VMIPS Malta boards
p19
sVhardware
p20
VMIPS Malta
p21
ss(Vbuild
p22
Vhppa
p23
tp24
(dp25
Vimage-file
p26
Vvmlinux
p27
ss(Vbuild
p28
Vppc64el
p29
tp30
(dp31
Vvdso
p32
I01
sVimage-file
p33
Vvmlinux
p34
ss(Vrelations
p35
g23
tp36
(dp37
Vgcc-4.9
p38
Vgcc-4.9 <!stage1>, binutils-hppa64 <!stage1>, gcc-4.9-hppa64 <!stage1>
p39
ss(Vdescription
p40
g23
NVparisc64-smp
p41
tp42
(dp43
Vhardware-long
p44
VHP PA-RISC 64-bit SMP systems with support for more than 4 GB RAM
p45
sVhardware
p46
Vmultiprocessor 64-bit PA-RISC
p47
ss(Vpackages
p48
tp49
(dp50
Vlibc-dev
p51
I00
ss(Vdescription
p52
Vpowerpcspe
p53
tp54
(dp55
Vhardware
p56
V32-bit PowerPC with SPE (instead of AltiVec) with SMP support
p57
ss(Vbuild
p58
Vm68k
p59
tp60
(dp61
Vimage-file
p62
Vvmlinux.gz
p63
ss(Vbase
p64
Varmel
p65
Vnone
p66
tp67
(dp68
Vflavours
p69
(lp70
Vmarvell
p71
aVversatile
p72
asVimplicit-flavour
p73
I01
ss(g64
Vpowerpc
p74
g66
tp75
(dp76
g69
(lp77
Vpowerpc
p78
aVpowerpc-smp
p79
aVpowerpc64
p80
asg73
I01
ss(Vbase
p81
g23
NVparisc64-smp
p82
tp83
(dp84
Vcflags
p85
V-fno-cse-follow-jumps
p86
sVoverride-host-type
p87
Vhppa64-linux-gnu
p88
ss(Vbase
p89
g14
tp90
(dp91
Vkernel-arch
p92
Vmips
p93
sVfeaturesets
p94
(lp95
g66
ass(Vimage
p96
g14
NVloongson-2e
p97
tp98
(dp99
Vconfigs
p100
(lp101
Vkernelarch-mips/config.loongson-2e
p102
ass(Vbase
p103
Vsparc64
p104
tp105
(dp106
Vkernel-arch
p107
Vsparc
p108
sg94
(lp109
g66
ass(Vdescription
p110
Vs390x
p111
NVs390x
p112
tp113
(dp114
Vhardware
p115
VIBM zSeries
p116
ss(Vimage
p117
Vmips
p118
NVocteon
p119
tp120
(dp121
Vconfigs
p122
(lp123
Vkernelarch-mips/config.octeon
p124
ass(Vbase
p125
tp126
(dp127
Varches
p128
(lp129
Valpha
p130
aVamd64
p131
aVarm64
p132
aVarmel
p133
aVarmhf
p134
aVhppa
p135
aVi386
p136
aVm68k
p137
aVmips
p138
aVmipsel
p139
aVmips64
p140
aVmips64el
p141
aVor1k
p142
aVpowerpc
p143
aVpowerpcspe
p144
aVppc64
p145
aVppc64el
p146
aVs390
p147
aVs390x
p148
aVsh4
p149
aVsparc
p150
aVsparc64
p151
aVx32
p152
asVfeaturesets
p153
(lp154
Vnone
p155
aVrt
p156
asVcompiler
p157
Vgcc-4.9
p158
ss(Vdescription
p159
g104
NVsparc64-smp
p160
tp161
(dp162
Vhardware
p163
Vmultiprocessor 64-bit UltraSPARC
p164
ss(Vimage
p165
g74
tp166
(dp167
Vinstall-stem
p168
Vvmlinux
p169
sVsuggests
p170
Vmkvmlinuz
p171
sVconfigs
p172
(lp173
ss(Vimage
p174
Vmips64el
p175
NVloongson-3
p176
tp177
(dp178
Vconfigs
p179
(lp180
Vkernelarch-mips/config.loongson-3
p181
ass(Vbuild
p182
g65
tp183
(dp184
Vimage-file
p185
Varch/arm/boot/zImage
p186
ss(Vdescription
p187
g118
NV4kc-malta
p188
tp189
(dp190
Vhardware-long
p191
VMIPS Malta boards
p192
sVhardware
p193
VMIPS Malta
p194
ss(Vdescription
p195
tp196
(dp197
Vpart-long-up
p198
VThis kernel is not suitable for SMP (multi-processor,\u000amulti-core or hyper-threaded) systems.
p199
sVpart-long-xen
p200
VThis kernel also runs on a Xen hypervisor.\u000aIt supports both privileged (dom0) and unprivileged (domU) operation.
p201
ss(Vimage
p202
Varmhf
p203
tp204
(dp205
Vinstall-stem
p206
Vvmlinuz
p207
sVsuggests
p208
Vfdutils
p209
sVconfigs
p210
(lp211
Vkernelarch-arm/config
p212
ass(Vbuild
p213
Vi386
p214
tp215
(dp216
Vvdso
p217
I01
sVimage-file
p218
Varch/x86/boot/bzImage
p219
ss(Vdescription
p220
g29
NVpowerpc64le
p221
tp222
(dp223
Vhardware
p224
VLittle-endian 64-bit PowerPC
p225
ss(Vbase
p226
Varm64
p227
Vnone
p228
tp229
(dp230
Vflavours
p231
(lp232
Varm64
p233
ass(g64
g203
g66
tp234
(dp235
g69
(lp236
Vrpi
p237
aVrpi2
p238
asg73
I01
ss(Vdescription
p239
Vamd64
p240
NVamd64
p241
tp242
(dp243
Vhardware-long
p244
VPCs with AMD64, Intel 64 or VIA Nano processors
p245
sVhardware
p246
V64-bit PCs
p247
ss(Vimage
p248
g203
NVrpi2
p249
tp250
(dp251
Vconfigs
p252
(lp253
Varmhf/config.rpix
p254
aVarmhf/config.rpi2
p255
ass(Vbuild
p256
Vppc64
p257
tp258
(dp259
Vvdso
p260
I01
sVimage-file
p261
Vvmlinux
p262
ss(Vbase
p263
g5
tp264
(dp265
Vkernel-arch
p266
Vsh
p267
sg94
(lp268
g66
ass(Vimage
p269
g104
NVsparc64-smp
p270
tp271
(dp272
Vconfigs
p273
(lp274
Vkernelarch-sparc/config-smp
p275
ass(Vbase
p276
g227
tp277
(dp278
Vkernel-arch
p279
Varm64
p280
sVfeaturesets
p281
(lp282
Vnone
p283
ass(g64
g29
g66
tp284
(dp285
g69
(lp286
Vpowerpc64le
p287
asg73
I01
ss(Vimage
p288
g118
NV4kc-malta
p289
tp290
(dp291
Vconfigs
p292
(lp293
Vkernelarch-mips/config.4kc-malta
p294
ass(Vrelations
p295
g214
tp296
(dp297
Vheaders%gcc-5
p298
Vlinux-compiler-gcc-5-x86
p299
ss(Vbase
p300
g65
tp301
(dp302
Vkernel-arch
p303
Varm
p304
sg94
(lp305
g66
ass(g64
Valpha
p306
g66
tp307
(dp308
g69
(lp309
Valpha-generic
p310
aValpha-smp
p311
asg73
I01
ss(Vbuild
p312
g203
NVrpi2
p313
tp314
(dp315
Vimage-file
p316
Varch/arm/boot/zImagerpdt
p317
ss(Vimage
p318
g257
tp319
(dp320
Vinstall-stem
p321
Vvmlinux
p322
sVsuggests
p323
Vmkvmlinuz
p324
sVconfigs
p325
(lp326
ss(Vbase
p327
g257
tp328
(dp329
Vkernel-arch
p330
Vpowerpc
p331
sg94
(lp332
g66
ass(Vdescription
p333
g203
NVrpi2
p334
tp335
(dp336
Vhardware-long
p337
VRaspberry PI 2
p338
sVhardware
p339
VRaspberryPI2
p340
ss(Vimage
p341
g203
NVarmmp-lpae
p342
tp343
(dp344
Vconfigs
p345
(lp346
Varmhf/config.armmp
p347
aVarmhf/config.lpae
p348
ass(Vimage
p349
Vmips64
p350
NV5kc-malta
p351
tp352
(dp353
Vconfigs
p354
(lp355
Vkernelarch-mips/config.5kc-malta
p356
ass(Vabi
p357
g111
tp358
(dp359
Vignore-changes
p360
(lp361
Vmodule:arch/s390/kvm/kvm
p362
ass(Vrelations
p363
tp364
(dp365
Vgcc-4.8
p366
Vgcc-4.8 <!stage1>
p367
sVgcc-5
p368
Vgcc-5 <!stage1>
p369
sVinitramfs-fallback
p370
Vlinux-initramfs-tool
p371
sVinitramfs-tools
p372
Vinitramfs-tools (>= 0.110~)
p373
sVgcc-4.9
p374
Vgcc-4.9 <!stage1>
p375
ss(Vdescription
p376
g59
NVm68k
p377
tp378
(dp379
Vhardware
p380
VMotorola MC68020+ family
p381
ss(Vbase
p382
g111
tp383
(dp384
Vkernel-arch
p385
Vs390
p386
sg94
(lp387
g66
ass(Vimage
p388
g14
NV5kc-malta
p389
tp390
(dp391
Vconfigs
p392
(lp393
Vkernelarch-mips/config.5kc-malta
p394
ass(Vrelations
p395
g240
tp396
(dp397
Vheaders%gcc-5
p398
Vlinux-compiler-gcc-5-x86
p399
ss(Vrelations
p400
g203
tp401
(dp402
Vheaders%gcc-4.9
p403
Vlinux-compiler-gcc-4.9-arm
p404
ss(Vdescription
p405
g5
NVsh7751r
p406
tp407
(dp408
Vhardware-long
p409
VRenesas SH7751R R2D plus board
p410
sVhardware
p411
Vsh7751r
p412
ss(Vimage
p413
g214
NV686-pae
p414
tp415
(dp416
Vrecommends
p417
Vlibc6-i686
p418
sVconfigs
p419
(lp420
Vkernelarch-x86/config-arch-32
p421
aVi386/config.686-pae
p422
ass(Vabi
p423
tp424
(dp425
Vabiname
p426
V1
p427
sVignore-changes
p428
(lp429
V__scm_destroy
p430
aV__scm_send
p431
aVscm_detach_fds
p432
aVscm_fp_dup
p433
aVefivar_validate
p434
aVget_thermal_instance
p435
aVinet_csk_reqsk_queue_add
p436
aVtcp_req_err
p437
aVmodule:drivers/gpu/drm/drm_kms_helper
p438
aVmodule:drivers/hv/hv_vmbus
p439
aVmodule:drivers/md/dm-snapshot
p440
aVmodule:drivers/mmc/host/sdhci
p441
aVmodule:drivers/mmc/host/sdhci*
p442
aVmodule:net/ceph/libceph
p443
ass(Vbase
p444
g240
Vnone
p445
tp446
(dp447
Vflavours
p448
(lp449
Vamd64
p450
ass(Vdescription
p451
g203
NVrpi
p452
tp453
(dp454
Vhardware-long
p455
VRaspberry PI
p456
sVhardware
p457
VRaspberryPI
p458
ss(Vbase
p459
Vs390
p460
tp461
(dp462
Vkernel-arch
p463
Vs390
p464
sVfeaturesets
p465
(lp466
ss(Vdescription
p467
g104
NVsparc64
p468
tp469
(dp470
Vhardware
p471
Vuniprocessor 64-bit UltraSPARC
p472
ss(Vimage
p473
tp474
(dp475
Vinitramfs-generators
p476
(lp477
Vinitramfs-tools
p478
aVinitramfs-fallback
p479
ass(Vimage
p480
g29
NVpowerpc64le
p481
tp482
(dp483
Vconfigs
p484
(lp485
Vkernelarch-powerpc/config-arch-64
p486
aVkernelarch-powerpc/config-arch-64-le
p487
ass(Vimage
p488
g5
NVsh7785lcr
p489
tp490
(dp491
Vcheck-size
p492
L4194304L
sVrecommends
p493
Vu-boot-tools
p494
ss(Vdescription
p495
g214
NV686-pae
p496
tp497
(dp498
Vparts
p499
(lp500
Vpae
p501
asVhardware-long
p502
VPCs with one or more processors supporting PAE
p503
sVhardware
p504
Vmodern PCs
p505
ss(Vdescription
p506
g175
NV5kc-malta
p507
tp508
(dp509
Vhardware-long
p510
VMIPS Malta boards
p511
sVhardware
p512
VMIPS Malta
p513
ss(Vimage
p514
g175
NV5kc-malta
p515
tp516
(dp517
Vconfigs
p518
(lp519
Vkernelarch-mips/config.5kc-malta
p520
ass(Vversion
p521
tp522
(dp523
Vupstream
p524
V4.4
p525
sVabiname_base
p526
V4.4.0
p527
sVsource
p528
V4.4.6-1+rpi8
p529
sVabiname
p530
V4.4.0-1
p531
ss(Vdescription
p532
g227
NVarm64
p533
tp534
(dp535
Vhardware
p536
V64-bit ARMv8 machines
p537
ss(Vimage
p538
g14
tp539
(dp540
Vinstall-stem
p541
Vvmlinux
p542
ss(Vimage
p543
g175
tp544
(dp545
Vinstall-stem
p546
Vvmlinux
p547
ss(Vbase
p548
g74
tp549
(dp550
Vkernel-arch
p551
Vpowerpc
p552
sg94
(lp553
g66
ass(Vimage
p554
g29
tp555
(dp556
Vinstall-stem
p557
Vvmlinux
p558
sVsuggests
p559
Vmkvmlinuz
p560
sVconfigs
p561
(lp562
ss(Vbase
p563
g59
tp564
(dp565
g94
(lp566
g66
asVkernel-arch
p567
Vm68k
p568
sVcompiler
p569
Vgcc-4.8
p570
sVcflags
p571
V-ffreestanding
p572
ss(Vdescription
p573
g214
Vnone
p574
V686-pae
p575
tp576
(dp577
Vparts
p578
(lp579
Vxen
p580
ass(Vrelations
p581
g111
tp582
(dp583
Vheaders%gcc-4.9
p584
Vlinux-compiler-gcc-4.9-s390
p585
ss(Vbuild
p586
g5
tp587
(dp588
Vimage-file
p589
Varch/sh/boot/zImage
p590
ss(Vrelations
p591
g65
tp592
(dp593
Vheaders%gcc-4.9
p594
Vlinux-compiler-gcc-4.9-arm
p595
ss(Vdescription
p596
g14
NVloongson-2e
p597
tp598
(dp599
Vhardware-long
p600
VLemote Loongson 2E systems
p601
sVhardware
p602
VLoongson 2E
p603
ss(Vimage
p604
g203
NVrpi
p605
tp606
(dp607
Vconfigs
p608
(lp609
Varmhf/config.rpix
p610
aVarmhf/config.test
p611
aVarmhf/config.rpi
p612
ass(Vimage
p613
g257
NVpowerpc64
p614
tp615
(dp616
Vconfigs
p617
(lp618
Vkernelarch-powerpc/config-arch-64
p619
aVkernelarch-powerpc/config-arch-64-be
p620
ass(Vbase
p621
g203
tp622
(dp623
Vkernel-arch
p624
Varm
p625
sg94
(lp626
g66
ass(Vdescription
p627
g257
NVpowerpc64
p628
tp629
(dp630
Vhardware
p631
V64-bit PowerPC
p632
ss(Vimage
p633
g74
NVpowerpc-smp
p634
tp635
(dp636
Vconfigs
p637
(lp638
Vpowerpc/config.powerpc
p639
aVpowerpc/config.powerpc-smp
p640
ass(Vdescription
p641
g14
NVloongson-2f
p642
tp643
(dp644
Vhardware-long
p645
VLemote Loongson 2F systems
p646
sVhardware
p647
VLoongson 2F
p648
ss(Vbase
p649
g214
tp650
(dp651
Vfeaturesets
p652
(lp653
Vnone
p654
aVrt
p655
asVcompiler
p656
Vgcc-5
p657
sVkernel-arch
p658
Vx86
p659
ss(Vimage
p660
g118
tp661
(dp662
Vinstall-stem
p663
Vvmlinux
p664
ss(Vbuild
p665
g118
tp666
(dp667
Vimage-file
p668
Vvmlinux
p669
ss(Vimage
p670
g14
NV4kc-malta
p671
tp672
(dp673
Vconfigs
p674
(lp675
Vkernelarch-mips/config.4kc-malta
p676
ass(g64
g5
g66
tp677
(dp678
g69
(lp679
Vsh7751r
p680
aVsh7785lcr
p681
asg73
I01
ss(Vimage
p682
g104
tp683
(dp684
Vinstall-stem
p685
Vvmlinuz
p686
sVsuggests
p687
Vsilo, fdutils
p688
sVconfigs
p689
(lp690
ss(Vimage
p691
g5
tp692
(dp693
Vinstall-stem
p694
Vvmlinuz
p695
sVsuggests
p696
Vfdutils
p697
ss(Vimage
p698
g23
tp699
(dp700
Vinstall-stem
p701
Vvmlinux
p702
sVsuggests
p703
Vpalo
p704
ss(Vimage
p705
g240
NVamd64
p706
tp707
(dp708
Vconfigs
p709
(lp710
Vkernelarch-x86/config-arch-64
p711
ass(Vimage
p712
g14
NVloongson-2f
p713
tp714
(dp715
Vrecommends
p716
Vlibc6-loongson2f
p717
sVconfigs
p718
(lp719
Vkernelarch-mips/config.loongson-2f
p720
ass(Vimage
p721
g214
NV686
p722
tp723
(dp724
Vrecommends
p725
Vlibc6-i686
p726
sVconfigs
p727
(lp728
Vkernelarch-x86/config-arch-32
p729
aVi386/config.686
p730
ass(Vimage
p731
g306
tp732
(dp733
Vinstall-stem
p734
Vvmlinuz
p735
sVsuggests
p736
Vaboot, fdutils
p737
ss(Vdescription
p738
g175
NVocteon
p739
tp740
(dp741
Vhardware-long
p742
VCavium Networks Octeon
p743
sVhardware
p744
VOcteon
p745
ss(Vdescription
p746
g14
NVloongson-3
p747
tp748
(dp749
Vhardware-long
p750
VLoongson 3A or 3B based systems (e.g. from Loongson or Lemote)
p751
sVhardware
p752
VLoongson 3A/3B
p753
ss(Vbuild
p754
g111
NVs390x
p755
tp756
(dp757
Vdebug-info
p758
I01
ss(Vbuild
p759
g74
tp760
(dp761
Vvdso
p762
I01
sVimage-file
p763
Vvmlinux
p764
ss(Vbase
p765
g240
tp766
(dp767
Vfeaturesets
p768
(lp769
Vnone
p770
aVrt
p771
asVcompiler
p772
Vgcc-5
p773
sVkernel-arch
p774
Vx86
p775
ss(Vbuild
p776
g214
NV686-pae
p777
tp778
(dp779
Vdebug-info
p780
I01
ss(Vbuild
p781
g203
NVrpi
p782
tp783
(dp784
Vimage-file
p785
Varch/arm/boot/zImagerpdt
p786
ss(Vbuild
p787
g111
tp788
(dp789
Vvdso
p790
I01
sVimage-file
p791
Varch/s390/boot/image
p792
ss(Vbase
p793
Vsparc
p794
tp795
(dp796
Vkernel-arch
p797
Vsparc
p798
sVfeaturesets
p799
(lp800
ss(Vabi
p801
g23
tp802
(dp803
Vignore-changes
p804
(lp805
Vdrm_dp_*
p806
ass(Vdescription
p807
g65
NVversatile
p808
tp809
(dp810
Vhardware-long
p811
VVersatile systems (PB, AB, Qemu)
p812
sVhardware
p813
VVersatile
p814
ss(Vbase
p815
NVrt
p816
tp817
(dp818
Venabled
p819
I01
ss(Vbase
p820
g23
tp821
(dp822
Vkernel-arch
p823
Vparisc
p824
sg94
(lp825
g66
ass(Vimage
p826
g118
NV5kc-malta
p827
tp828
(dp829
Vconfigs
p830
(lp831
Vkernelarch-mips/config.5kc-malta
p832
ass(Vbuild
p833
g14
tp834
(dp835
Vimage-file
p836
Vvmlinux
p837
ss(Vbuild
p838
g227
tp839
(dp840
Vdebug-info
p841
I01
sVimage-file
p842
Varch/arm64/boot/Image
p843
sVvdso
p844
I01
ss(Vbase
p845
g306
tp846
(dp847
Vkernel-arch
p848
Valpha
p849
sg94
(lp850
g66
ass(Vimage
p851
g227
tp852
(dp853
Vinstall-stem
p854
Vvmlinuz
p855
ss(Vdescription
p856
g203
NVarmmp-lpae
p857
tp858
(dp859
Vhardware-long
p860
VARMv7 multiplatform kernel supporting LPAE. See\u000ahttps://wiki.debian.org/DebianKernel/ARMMP for details of supported\u000aplatforms.
p861
sVhardware
p862
VARMv7 multiplatform compatible SoCs supporting LPAE
p863
ss(Vdescription
p864
g214
NV686
p865
tp866
(dp867
Vhardware-long
p868
VPCs with one or more processors not supporting PAE
p869
sVhardware
p870
Volder PCs
p871
ss(Vimage
p872
g111
tp873
(dp874
Vinstall-stem
p875
Vvmlinuz
p876
sVbootloaders
p877
(lp878
Vs390-tools
p879
asVconfigs
p880
(lp881
ss(Vbase
p882
g214
Vrt
p883
tp884
(dp885
Vflavours
p886
(lp887
V686-pae
p888
ass(g64
g175
g66
tp889
(dp890
g69
(lp891
V5kc-malta
p892
aVloongson-3
p893
aVocteon
p894
asg73
I01
ss(g64
g59
g66
tp895
(dp896
g69
(lp897
Vm68k
p898
asg73
I01
ss(Vbase
p899
g214
g574
tp900
(dp901
Vflavours
p902
(lp903
V686
p904
aV686-pae
p905
ass(g64
g104
g66
tp906
(dp907
g69
(lp908
Vsparc64
p909
aVsparc64-smp
p910
asg73
I01
ss(Vimage
p911
g240
tp912
(dp913
Vinstall-stem
p914
Vvmlinuz
p915
sVbreaks
p916
Vxserver-xorg-input-vmmouse (<< 1:13.0.99)
p917
sVbootloaders
p918
(lp919
Vgrub-pc
p920
aVgrub-efi
p921
aVextlinux
p922
asVconfigs
p923
(lp924
ss(Vimage
p925
g350
NVocteon
p926
tp927
(dp928
Vconfigs
p929
(lp930
Vkernelarch-mips/config.octeon
p931
ass(Vbuild
p932
g306
tp933
(dp934
Vimage-file
p935
Varch/alpha/boot/vmlinux.gz
p936
ss(Vdescription
p937
g74
NVpowerpc64
p938
tp939
(dp940
Vhardware
p941
V64-bit PowerPC
p942
ss(Vdescription
p943
g118
NV5kc-malta
p944
tp945
(dp946
Vhardware-long
p947
VMIPS Malta boards (64-bit)
p948
sVhardware
p949
VMIPS Malta (64-bit)
p950
ss(Vbase
p951
Vor1k
p952
tp953
(dp954
Vkernel-arch
p955
Vopenrisc
p956
sVfeaturesets
p957
(lp958
ss(Vdescription
p959
g214
tp960
(dp961
Vpart-long-pae
p962
VThis kernel requires PAE (Physical Address Extension).\u000aThis feature is supported by the Intel Pentium Pro/II/III/4/4M/D, Xeon,\u000aCore and Atom; AMD Geode NX, Athlon (K7), Duron, Opteron, Sempron,\u000aTurion or Phenom; Transmeta Efficeon; VIA C7; and some other processors.
p963
ss(Vdescription
p964
g306
NValpha-generic
p965
tp966
(dp967
Vhardware-long
p968
VDEC Alpha systems with extended kernel start address (Wildfire, Titan, Marvel)
p969
sVhardware
p970
VAlpha
p971
ss(Vdescription
p972
g74
NVpowerpc-smp
p973
tp974
(dp975
Vhardware
p976
Vmultiprocessor 32-bit PowerPC
p977
ss(Vxen
p978
g240
g445
Vamd64
p979
tp980
(dp981
Vflavours
p982
(lp983
Vamd64
p984
ass(Vdescription
p985
g350
NV5kc-malta
p986
tp987
(dp988
Vhardware-long
p989
VMIPS Malta boards
p990
sVhardware
p991
VMIPS Malta
p992
ss(Vdescription
p993
g14
NV5kc-malta
p994
tp995
(dp996
Vhardware-long
p997
VMIPS Malta boards (64-bit)
p998
sVhardware
p999
VMIPS Malta (64-bit)
p1000
ss(Vdescription
p1001
g65
NVmarvell
p1002
tp1003
(dp1004
Vhardware-long
p1005
VMarvell Kirkwood based systems (SheevaPlug, QNAP TS-119/TS-219, etc)\u000aand Orion 5181, 5182 and 5281 based systems (QNAP TS-109/TS-209, etc)
p1006
sVhardware
p1007
VMarvell Kirkwood/Orion
p1008
ss(g64
g53
g66
tp1009
(dp1010
g69
(lp1011
Vpowerpcspe
p1012
asg73
I01
ss(Vbuild
p1013
g53
tp1014
(dp1015
Vvdso
p1016
I01
sVimage-file
p1017
Vvmlinux
p1018
ss(Vimage
p1019
g104
NVsparc64
p1020
tp1021
(dp1022
Vconfigs
p1023
(lp1024
Vkernelarch-sparc/config-up
p1025
ass(Vbuild
p1026
g175
tp1027
(dp1028
Vimage-file
p1029
Vvmlinux
p1030
ss(Vbase
p1031
g29
tp1032
(dp1033
Vkernel-arch
p1034
Vpowerpc
p1035
sg94
(lp1036
g66
ass(Vdescription
p1037
g175
NVloongson-3
p1038
tp1039
(dp1040
Vhardware-long
p1041
VLoongson 3A or 3B based systems (e.g. from Loongson or Lemote)
p1042
sVhardware
p1043
VLoongson 3A/3B
p1044
ss(Vbase
p1045
g53
tp1046
(dp1047
Vkernel-arch
p1048
Vpowerpc
p1049
sg94
(lp1050
g66
ass(Vdescription
p1051
g23
NVparisc
p1052
tp1053
(dp1054
Vhardware-long
p1055
VHP PA-RISC 32-bit systems with max 4 GB RAM
p1056
sVhardware
p1057
V32-bit PA-RISC
p1058
ss(Vdescription
p1059
g74
NVpowerpc
p1060
tp1061
(dp1062
Vhardware
p1063
Vuniprocessor 32-bit PowerPC
p1064
ss(g64
g23
g66
tp1065
(dp1066
g69
(lp1067
Vparisc
p1068
aVparisc64-smp
p1069
asg73
I01
ss(Vdescription
p1070
g306
NValpha-smp
p1071
tp1072
(dp1073
Vhardware-long
p1074
VDEC Alpha SMP systems with extended kernel start address (Wildfire, Titan, Marvel)
p1075
sVhardware
p1076
VAlpha SMP
p1077
ss(g64
g118
g66
tp1078
(dp1079
g69
(lp1080
V4kc-malta
p1081
aV5kc-malta
p1082
aVocteon
p1083
asg73
I01
ss(Vbuild
p1084
g350
tp1085
(dp1086
Vimage-file
p1087
Vvmlinux
p1088
ss(Vdescription
p1089
g203
NVarmmp
p1090
tp1091
(dp1092
Vhardware-long
p1093
VARMv7 multiplatform kernel. See\u000ahttps://wiki.debian.org/DebianKernel/ARMMP for details of supported\u000aplatforms
p1094
sVhardware
p1095
VARMv7 multiplatform compatible SoCs
p1096
ss(Vimage
p1097
g53
tp1098
(dp1099
Vinstall-stem
p1100
Vvmlinux
p1101
sVsuggests
p1102
Vmkvmlinuz
p1103
ss(Vbase
p1104
g118
tp1105
(dp1106
Vkernel-arch
p1107
Vmips
p1108
sg94
(lp1109
g66
ass(Vimage
p1110
g65
NVmarvell
p1111
tp1112
(dp1113
Vcheck-size-with-dtb
p1114
I01
sVcheck-size
p1115
L2097080L
sVrecommends
p1116
Vu-boot-tools
p1117
sVbreaks
p1118
Vflash-kernel (<< 3.57~)
p1119
ss(g64
g111
g66
tp1120
(dp1121
g69
(lp1122
Vs390x
p1123
asg73
I01
ss(Vdescription
p1124
g350
NVocteon
p1125
tp1126
(dp1127
Vhardware-long
p1128
VCavium Networks Octeon
p1129
sVhardware
p1130
VOcteon
p1131
ss(Vbase
p1132
g175
tp1133
(dp1134
Vkernel-arch
p1135
Vmips
p1136
sg94
(lp1137
g66
ass(Vbuild
p1138
g240
tp1139
(dp1140
Vdebug-info
p1141
I01
sVimage-file
p1142
Varch/x86/boot/bzImage
p1143
sVvdso
p1144
I01
ss(Vdescription
p1145
NVrt
p1146
tp1147
(dp1148
Vpart-short-rt
p1149
VPREEMPT_RT
p1150
sVpart-long-rt
p1151
VThis kernel includes the PREEMPT_RT realtime patch set.
p1152
sVparts
p1153
(lp1154
Vrt
p1155
ass(Vdescription
p1156
g240
g445
Vamd64
p1157
tp1158
(dp1159
Vparts
p1160
(lp1161
Vxen
p1162
ass(Vimage
p1163
g59
tp1164
(dp1165
Vinstall-stem
p1166
Vvmlinuz
p1167
sVsuggests
p1168
Vvmelilo, fdutils
p1169
ss(g64
g350
g66
tp1170
(dp1171
g69
(lp1172
V5kc-malta
p1173
aVocteon
p1174
asg73
I01
ss(Vimage
p1175
g65
tp1176
(dp1177
Vinstall-stem
p1178
Vvmlinuz
p1179
sVsuggests
p1180
Vfdutils
p1181
sVconfigs
p1182
(lp1183
Vkernelarch-arm/config
p1184
aVarmel/config
p1185
ass(Vimage
p1186
g74
NVpowerpc64
p1187
tp1188
(dp1189
Vconfigs
p1190
(lp1191
Vkernelarch-powerpc/config-arch-64
p1192
aVkernelarch-powerpc/config-arch-64-be
p1193
ass(g64
g257
g66
tp1194
(dp1195
g69
(lp1196
Vpowerpc64
p1197
asg73
I01
ss(Vdescription
p1198
g118
NVocteon
p1199
tp1200
(dp1201
Vhardware-long
p1202
VCavium Networks Octeon
p1203
sVhardware
p1204
VOcteon
p1205
ss(Vimage
p1206
g14
NVloongson-3
p1207
tp1208
(dp1209
Vconfigs
p1210
(lp1211
Vkernelarch-mips/config.loongson-3
p1212
ass(Vbuild
p1213
g104
tp1214
(dp1215
Vimage-file
p1216
Varch/sparc/boot/zImage
p1217
ss(Vbase
p1218
Vx32
p1219
tp1220
(dp1221
Vkernel-arch
p1222
Vx86
p1223
sVfeaturesets
p1224
(lp1225
ss(Vimage
p1226
g227
NVarm64
p1227
tp1228
(dp1229
s(Vimage
p1230
g111
NVs390x
p1231
tp1232
(dp1233
Vconfigs
p1234
(lp1235
Vkernelarch-s390/config-arch-64
p1236
ass(Vbase
p1237
g350
tp1238
(dp1239
Vkernel-arch
p1240
Vmips
p1241
sg94
(lp1242
g66
ass(Vimage
p1243
g214
tp1244
(dp1245
Vinstall-stem
p1246
Vvmlinuz
p1247
sVbreaks
p1248
Vxserver-xorg-input-vmmouse (<< 1:13.0.99)
p1249
sVbootloaders
p1250
(lp1251
Vgrub-pc
p1252
aVextlinux
p1253
asVconfigs
p1254
(lp1255
ss(g64
g14
g66
tp1256
(dp1257
g69
(lp1258
V4kc-malta
p1259
aV5kc-malta
p1260
aVloongson-2e
p1261
aVloongson-2f
p1262
aVloongson-3
p1263
asg73
I01
ss(Vimage
p1264
g175
NVocteon
p1265
tp1266
(dp1267
Vconfigs
p1268
(lp1269
Vkernelarch-mips/config.octeon
p1270
ass(Vimage
p1271
g350
tp1272
(dp1273
Vinstall-stem
p1274
Vvmlinux
p1275
ss(Vbuild
p1276
g203
tp1277
(dp1278
Vvdso
p1279
I01
sVimage-file
p1280
Varch/arm/boot/zImage
p1281
ss(Vbase
p1282
g240
Vrt
p1283
tp1284
(dp1285
Vflavours
p1286
(lp1287
Vamd64
p1288
ass(Vabi
p1289
Ng1146
tp1290
(dp1291
Vignore-changes
p1292
(lp1293
V*
p1294
asstp1295
Rp1296
.