ccopy_reg
_reconstructor
p0
(cdebian_linux.config
ConfigCore
p1
c__builtin__
dict
p2
(dp3
(Vimage
p4
Vppc64
p5
NVpowerpc64
p6
tp7
(dp8
Vconfigs
p9
(lp10
Vkernelarch-powerpc/config-arch-64
p11
aVkernelarch-powerpc/config-arch-64-be
p12
ass(Vdescription
p13
Varmhf
p14
NVrpi2
p15
tp16
(dp17
Vhardware
p18
VRaspberryPI2
p19
sVhardware-long
p20
VRaspberry PI 2
p21
ss(Vdescription
p22
Vmips
p23
NV4kc-malta
p24
tp25
(dp26
Vhardware
p27
VMIPS Malta
p28
sVhardware-long
p29
VMIPS Malta boards
p30
ss(Vimage
p31
Vsparc64
p32
NVsparc64-smp
p33
tp34
(dp35
Vconfigs
p36
(lp37
Vkernelarch-sparc/config-smp
p38
ass(Vabi
p39
tp40
(dp41
Vabiname
p42
V1
p43
sVignore-changes
p44
(lp45
V__scm_destroy
p46
aV__scm_send
p47
aVscm_detach_fds
p48
aVscm_fp_dup
p49
aVefivar_validate
p50
aVget_thermal_instance
p51
aVinet_csk_reqsk_queue_add
p52
aVtcp_req_err
p53
aVmodule:drivers/gpu/drm/drm_kms_helper
p54
aVmodule:drivers/hv/hv_vmbus
p55
aVmodule:drivers/md/dm-snapshot
p56
aVmodule:drivers/mmc/host/sdhci
p57
aVmodule:drivers/mmc/host/sdhci*
p58
aVmodule:net/ceph/libceph
p59
ass(Vbase
p60
Varm64
p61
tp62
(dp63
Vkernel-arch
p64
Varm64
p65
sVfeaturesets
p66
(lp67
Vnone
p68
ass(Vrelations
p69
Vi386
p70
tp71
(dp72
Vheaders%gcc-5
p73
Vlinux-compiler-gcc-5-x86
p74
ss(Vdescription
p75
Vamd64
p76
Vnone
p77
Vamd64
p78
tp79
(dp80
Vparts
p81
(lp82
Vxen
p83
ass(Vdescription
p84
Vmips64el
p85
NVloongson-3
p86
tp87
(dp88
Vhardware
p89
VLoongson 3A/3B
p90
sVhardware-long
p91
VLoongson 3A or 3B based systems (e.g. from Loongson or Lemote)
p92
ss(Vdescription
p93
g14
NVarmmp-lpae
p94
tp95
(dp96
Vhardware
p97
VARMv7 multiplatform compatible SoCs supporting LPAE
p98
sVhardware-long
p99
VARMv7 multiplatform kernel supporting LPAE. See\u000ahttps://wiki.debian.org/DebianKernel/ARMMP for details of supported\u000aplatforms.
p100
ss(Vbuild
p101
g14
NVrpi2
p102
tp103
(dp104
Vimage-file
p105
Varch/arm/boot/zImagerpdt
p106
ss(Vbuild
p107
Vppc64el
p108
tp109
(dp110
Vvdso
p111
I01
sVimage-file
p112
Vvmlinux
p113
ss(Vdescription
p114
Varmel
p115
NVmarvell
p116
tp117
(dp118
Vhardware
p119
VMarvell Kirkwood/Orion
p120
sVhardware-long
p121
VMarvell Kirkwood based systems (SheevaPlug, QNAP TS-119/TS-219, etc)\u000aand Orion 5181, 5182 and 5281 based systems (QNAP TS-109/TS-209, etc)
p122
ss(Vbase
p123
Vm68k
p124
tp125
(dp126
Vcompiler
p127
Vgcc-4.8
p128
sVkernel-arch
p129
Vm68k
p130
sVfeaturesets
p131
(lp132
Vnone
p133
asVcflags
p134
V-ffreestanding
p135
ss(Vbase
p136
Vpowerpc
p137
g133
tp138
(dp139
Vflavours
p140
(lp141
Vpowerpc
p142
aVpowerpc-smp
p143
aVpowerpc64
p144
asVimplicit-flavour
p145
I01
ss(g136
Vsh4
p146
g133
tp147
(dp148
g140
(lp149
Vsh7751r
p150
aVsh7785lcr
p151
asg145
I01
ss(Vimage
p152
g70
tp153
(dp154
Vconfigs
p155
(lp156
sVbreaks
p157
Vxserver-xorg-input-vmmouse (<< 1:13.0.99)
p158
sVinstall-stem
p159
Vvmlinuz
p160
sVbootloaders
p161
(lp162
Vgrub-pc
p163
aVextlinux
p164
ass(Vbase
p165
Vor1k
p166
tp167
(dp168
Vkernel-arch
p169
Vopenrisc
p170
sVfeaturesets
p171
(lp172
ss(Vdescription
p173
Valpha
p174
NValpha-smp
p175
tp176
(dp177
Vhardware
p178
VAlpha SMP
p179
sVhardware-long
p180
VDEC Alpha SMP systems with extended kernel start address (Wildfire, Titan, Marvel)
p181
ss(g136
Vs390x
p182
g133
tp183
(dp184
g140
(lp185
Vs390x
p186
asg145
I01
ss(Vbuild
p187
g137
tp188
(dp189
Vvdso
p190
I01
sVimage-file
p191
Vvmlinux
p192
ss(Vbuild
p193
Vmips64
p194
tp195
(dp196
Vimage-file
p197
Vvmlinux
p198
ss(Vabi
p199
Vhppa
p200
tp201
(dp202
Vignore-changes
p203
(lp204
Vdrm_dp_*
p205
ass(g136
g5
g133
tp206
(dp207
g140
(lp208
Vpowerpc64
p209
asg145
I01
ss(Vimage
p210
g32
tp211
(dp212
Vsuggests
p213
Vsilo, fdutils
p214
sVinstall-stem
p215
Vvmlinuz
p216
sVconfigs
p217
(lp218
ss(Vbuild
p219
g14
tp220
(dp221
Vvdso
p222
I01
sVimage-file
p223
Varch/arm/boot/zImage
p224
ss(Vimage
p225
Vpowerpcspe
p226
tp227
(dp228
Vsuggests
p229
Vmkvmlinuz
p230
sVinstall-stem
p231
Vvmlinux
p232
ss(Vbase
p233
g137
tp234
(dp235
Vkernel-arch
p236
Vpowerpc
p237
sg131
(lp238
g133
ass(Vrelations
p239
g115
tp240
(dp241
Vheaders%gcc-4.9
p242
Vlinux-compiler-gcc-4.9-arm
p243
ss(Vbuild
p244
g85
tp245
(dp246
Vimage-file
p247
Vvmlinux
p248
ss(Vabi
p249
g182
tp250
(dp251
Vignore-changes
p252
(lp253
Vmodule:arch/s390/kvm/kvm
p254
ass(Vimage
p255
Vmipsel
p256
NV5kc-malta
p257
tp258
(dp259
Vconfigs
p260
(lp261
Vkernelarch-mips/config.5kc-malta
p262
ass(Vimage
p263
g23
NV5kc-malta
p264
tp265
(dp266
Vconfigs
p267
(lp268
Vkernelarch-mips/config.5kc-malta
p269
ass(Vdescription
p270
g14
NVarmmp
p271
tp272
(dp273
Vhardware
p274
VARMv7 multiplatform compatible SoCs
p275
sVhardware-long
p276
VARMv7 multiplatform kernel. See\u000ahttps://wiki.debian.org/DebianKernel/ARMMP for details of supported\u000aplatforms
p277
ss(Vdescription
p278
g256
NVloongson-3
p279
tp280
(dp281
Vhardware
p282
VLoongson 3A/3B
p283
sVhardware-long
p284
VLoongson 3A or 3B based systems (e.g. from Loongson or Lemote)
p285
ss(Vdescription
p286
g256
NVloongson-2f
p287
tp288
(dp289
Vhardware
p290
VLoongson 2F
p291
sVhardware-long
p292
VLemote Loongson 2F systems
p293
ss(Vdescription
p294
tp295
(dp296
Vpart-long-xen
p297
VThis kernel also runs on a Xen hypervisor.\u000aIt supports both privileged (dom0) and unprivileged (domU) operation.
p298
sVpart-long-up
p299
VThis kernel is not suitable for SMP (multi-processor,\u000amulti-core or hyper-threaded) systems.
p300
ss(Vbase
p301
g76
Vrt
p302
tp303
(dp304
Vflavours
p305
(lp306
Vamd64
p307
ass(Vimage
p308
g76
NVamd64
p309
tp310
(dp311
Vconfigs
p312
(lp313
Vkernelarch-x86/config-arch-64
p314
ass(Vdescription
p315
g137
NVpowerpc
p316
tp317
(dp318
Vhardware
p319
Vuniprocessor 32-bit PowerPC
p320
ss(Vbase
p321
g76
tp322
(dp323
Vcompiler
p324
Vgcc-5
p325
sVkernel-arch
p326
Vx86
p327
sVfeaturesets
p328
(lp329
Vnone
p330
aVrt
p331
ass(Vbuild
p332
g182
tp333
(dp334
Vvdso
p335
I01
sVimage-file
p336
Varch/s390/boot/image
p337
ss(Vbase
p338
g256
tp339
(dp340
Vkernel-arch
p341
Vmips
p342
sg131
(lp343
g133
ass(g136
g32
g133
tp344
(dp345
g140
(lp346
Vsparc64
p347
aVsparc64-smp
p348
asg145
I01
ss(Vdescription
p349
g23
NVocteon
p350
tp351
(dp352
Vhardware
p353
VOcteon
p354
sVhardware-long
p355
VCavium Networks Octeon
p356
ss(g136
g174
g133
tp357
(dp358
g140
(lp359
Valpha-generic
p360
aValpha-smp
p361
asg145
I01
ss(Vimage
p362
g174
tp363
(dp364
Vsuggests
p365
Vaboot, fdutils
p366
sVinstall-stem
p367
Vvmlinuz
p368
ss(Vbuild
p369
g146
tp370
(dp371
Vimage-file
p372
Varch/sh/boot/zImage
p373
ss(Vimage
p374
g85
NV5kc-malta
p375
tp376
(dp377
Vconfigs
p378
(lp379
Vkernelarch-mips/config.5kc-malta
p380
ass(Vdescription
p381
g194
NV5kc-malta
p382
tp383
(dp384
Vhardware
p385
VMIPS Malta
p386
sVhardware-long
p387
VMIPS Malta boards
p388
ss(Vimage
p389
g76
tp390
(dp391
Vconfigs
p392
(lp393
sVbreaks
p394
Vxserver-xorg-input-vmmouse (<< 1:13.0.99)
p395
sVinstall-stem
p396
Vvmlinuz
p397
sVbootloaders
p398
(lp399
Vgrub-pc
p400
aVgrub-efi
p401
aVextlinux
p402
ass(Vdescription
p403
g200
NVparisc64-smp
p404
tp405
(dp406
Vhardware
p407
Vmultiprocessor 64-bit PA-RISC
p408
sVhardware-long
p409
VHP PA-RISC 64-bit SMP systems with support for more than 4 GB RAM
p410
ss(Vdescription
p411
g115
NVversatile
p412
tp413
(dp414
Vhardware
p415
VVersatile
p416
sVhardware-long
p417
VVersatile systems (PB, AB, Qemu)
p418
ss(Vdescription
p419
g70
tp420
(dp421
Vpart-long-pae
p422
VThis kernel requires PAE (Physical Address Extension).\u000aThis feature is supported by the Intel Pentium Pro/II/III/4/4M/D, Xeon,\u000aCore and Atom; AMD Geode NX, Athlon (K7), Duron, Opteron, Sempron,\u000aTurion or Phenom; Transmeta Efficeon; VIA C7; and some other processors.
p423
ss(Vdescription
p424
g85
NV5kc-malta
p425
tp426
(dp427
Vhardware
p428
VMIPS Malta
p429
sVhardware-long
p430
VMIPS Malta boards
p431
ss(Vbuild
p432
g14
NVrpi
p433
tp434
(dp435
Vimage-file
p436
Varch/arm/boot/zImagerpdt
p437
ss(Vabi
p438
NVrt
p439
tp440
(dp441
Vignore-changes
p442
(lp443
V*
p444
ass(Vbase
p445
g14
tp446
(dp447
Vkernel-arch
p448
Varm
p449
sg131
(lp450
g133
ass(Vimage
p451
g194
NVocteon
p452
tp453
(dp454
Vconfigs
p455
(lp456
Vkernelarch-mips/config.octeon
p457
ass(Vimage
p458
g61
tp459
(dp460
Vinstall-stem
p461
Vvmlinuz
p462
ss(Vbase
p463
g70
tp464
(dp465
Vcompiler
p466
Vgcc-5
p467
sVkernel-arch
p468
Vx86
p469
sVfeaturesets
p470
(lp471
Vnone
p472
aVrt
p473
ass(Vimage
p474
g146
tp475
(dp476
Vsuggests
p477
Vfdutils
p478
sVinstall-stem
p479
Vvmlinuz
p480
ss(Vbuild
p481
g174
tp482
(dp483
Vimage-file
p484
Varch/alpha/boot/vmlinux.gz
p485
ss(Vimage
p486
g137
NVpowerpc-smp
p487
tp488
(dp489
Vconfigs
p490
(lp491
Vpowerpc/config.powerpc
p492
aVpowerpc/config.powerpc-smp
p493
ass(Vbuild
p494
g70
NV686-pae
p495
tp496
(dp497
Vdebug-info
p498
I01
ss(Vimage
p499
g200
tp500
(dp501
Vsuggests
p502
Vpalo
p503
sVinstall-stem
p504
Vvmlinux
p505
ss(Vbase
p506
g108
tp507
(dp508
Vkernel-arch
p509
Vpowerpc
p510
sg131
(lp511
g133
ass(Vbase
p512
g70
Vnone
p513
tp514
(dp515
Vflavours
p516
(lp517
V686
p518
aV686-pae
p519
ass(Vdescription
p520
g200
NVparisc
p521
tp522
(dp523
Vhardware
p524
V32-bit PA-RISC
p525
sVhardware-long
p526
VHP PA-RISC 32-bit systems with max 4 GB RAM
p527
ss(Vimage
p528
g146
NVsh7785lcr
p529
tp530
(dp531
Vcheck-size
p532
L4194304L
sVrecommends
p533
Vu-boot-tools
p534
ss(Vbase
p535
g200
NVparisc64-smp
p536
tp537
(dp538
Vcflags
p539
V-fno-cse-follow-jumps
p540
sVoverride-host-type
p541
Vhppa64-linux-gnu
p542
ss(Vrelations
p543
g200
tp544
(dp545
Vgcc-4.9
p546
Vgcc-4.9 <!stage1>, binutils-hppa64 <!stage1>, gcc-4.9-hppa64 <!stage1>
p547
ss(Vrelations
p548
g14
tp549
(dp550
Vheaders%gcc-4.9
p551
Vlinux-compiler-gcc-4.9-arm
p552
ss(g136
g200
g133
tp553
(dp554
g140
(lp555
Vparisc
p556
aVparisc64-smp
p557
asg145
I01
ss(Vbase
p558
Vx32
p559
tp560
(dp561
Vkernel-arch
p562
Vx86
p563
sVfeaturesets
p564
(lp565
ss(Vbase
p566
Vsparc
p567
tp568
(dp569
Vkernel-arch
p570
Vsparc
p571
sVfeaturesets
p572
(lp573
ss(Vbase
p574
g76
g77
tp575
(dp576
Vflavours
p577
(lp578
Vamd64
p579
ass(Vimage
p580
g256
NVloongson-2f
p581
tp582
(dp583
Vrecommends
p584
Vlibc6-loongson2f
p585
sVconfigs
p586
(lp587
Vkernelarch-mips/config.loongson-2f
p588
ass(Vbase
p589
g61
Vnone
p590
tp591
(dp592
Vflavours
p593
(lp594
Varm64
p595
ass(Vimage
p596
g61
NVarm64
p597
tp598
(dp599
s(g136
g256
g133
tp600
(dp601
g140
(lp602
V4kc-malta
p603
aV5kc-malta
p604
aVloongson-2e
p605
aVloongson-2f
p606
aVloongson-3
p607
asg145
I01
ss(Vbuild
p608
g200
tp609
(dp610
Vimage-file
p611
Vvmlinux
p612
ss(Vbuild
p613
g23
tp614
(dp615
Vimage-file
p616
Vvmlinux
p617
ss(Vbuild
p618
g32
tp619
(dp620
Vimage-file
p621
Varch/sparc/boot/zImage
p622
ss(Vimage
p623
g14
NVrpi
p624
tp625
(dp626
Vconfigs
p627
(lp628
Varmhf/config.rpix
p629
aVarmhf/config.test
p630
aVarmhf/config.rpi
p631
ass(Vbase
p632
g226
tp633
(dp634
Vkernel-arch
p635
Vpowerpc
p636
sg131
(lp637
g133
ass(Vbuild
p638
g61
tp639
(dp640
Vvdso
p641
I01
sVimage-file
p642
Varch/arm64/boot/Image
p643
sVdebug-info
p644
I01
ss(g136
g115
g133
tp645
(dp646
g140
(lp647
Vmarvell
p648
aVversatile
p649
asg145
I01
ss(Vimage
p650
g5
tp651
(dp652
Vsuggests
p653
Vmkvmlinuz
p654
sVinstall-stem
p655
Vvmlinux
p656
sVconfigs
p657
(lp658
ss(Vbuild
p659
g5
tp660
(dp661
Vvdso
p662
I01
sVimage-file
p663
Vvmlinux
p664
ss(g136
g23
g133
tp665
(dp666
g140
(lp667
V4kc-malta
p668
aV5kc-malta
p669
aVocteon
p670
asg145
I01
ss(Vdescription
p671
g5
NVpowerpc64
p672
tp673
(dp674
Vhardware
p675
V64-bit PowerPC
p676
ss(Vimage
p677
g137
NVpowerpc64
p678
tp679
(dp680
Vconfigs
p681
(lp682
Vkernelarch-powerpc/config-arch-64
p683
aVkernelarch-powerpc/config-arch-64-be
p684
ass(Vdescription
p685
g256
NV4kc-malta
p686
tp687
(dp688
Vhardware
p689
VMIPS Malta
p690
sVhardware-long
p691
VMIPS Malta boards
p692
ss(Vdescription
p693
g70
g513
V686-pae
p694
tp695
(dp696
Vparts
p697
(lp698
Vxen
p699
ass(Vdescription
p700
g70
NV686
p701
tp702
(dp703
Vhardware
p704
Volder PCs
p705
sVhardware-long
p706
VPCs with one or more processors not supporting PAE
p707
ss(Vimage
p708
g108
NVpowerpc64le
p709
tp710
(dp711
Vconfigs
p712
(lp713
Vkernelarch-powerpc/config-arch-64
p714
aVkernelarch-powerpc/config-arch-64-le
p715
ass(Vbase
p716
g85
tp717
(dp718
Vkernel-arch
p719
Vmips
p720
sg131
(lp721
g133
ass(Vbase
p722
g70
Vrt
p723
tp724
(dp725
Vflavours
p726
(lp727
V686-pae
p728
ass(Vimage
p729
g70
NV686-pae
p730
tp731
(dp732
Vrecommends
p733
Vlibc6-i686
p734
sVconfigs
p735
(lp736
Vkernelarch-x86/config-arch-32
p737
aVi386/config.686-pae
p738
ass(Vimage
p739
g23
NV4kc-malta
p740
tp741
(dp742
Vconfigs
p743
(lp744
Vkernelarch-mips/config.4kc-malta
p745
ass(Vimage
p746
g115
NVmarvell
p747
tp748
(dp749
Vcheck-size
p750
L2097080L
sVrecommends
p751
Vu-boot-tools
p752
sVcheck-size-with-dtb
p753
I01
sVbreaks
p754
Vflash-kernel (<< 3.57~)
p755
ss(Vimage
p756
g182
tp757
(dp758
Vconfigs
p759
(lp760
sVinstall-stem
p761
Vvmlinuz
p762
sVbootloaders
p763
(lp764
Vs390-tools
p765
ass(Vdescription
p766
g32
NVsparc64
p767
tp768
(dp769
Vhardware
p770
Vuniprocessor 64-bit UltraSPARC
p771
ss(Vbuild
p772
g115
tp773
(dp774
Vimage-file
p775
Varch/arm/boot/zImage
p776
ss(g136
g124
g133
tp777
(dp778
g140
(lp779
Vm68k
p780
asg145
I01
ss(Vdescription
p781
g14
NVrpi
p782
tp783
(dp784
Vhardware
p785
VRaspberryPI
p786
sVhardware-long
p787
VRaspberry PI
p788
ss(Vimage
p789
g194
tp790
(dp791
Vinstall-stem
p792
Vvmlinux
p793
ss(Vimage
p794
g23
NVocteon
p795
tp796
(dp797
Vconfigs
p798
(lp799
Vkernelarch-mips/config.octeon
p800
ass(Vbase
p801
tp802
(dp803
Vcompiler
p804
Vgcc-4.9
p805
sVfeaturesets
p806
(lp807
Vnone
p808
aVrt
p809
asVarches
p810
(lp811
Valpha
p812
aVamd64
p813
aVarm64
p814
aVarmel
p815
aVarmhf
p816
aVhppa
p817
aVi386
p818
aVm68k
p819
aVmips
p820
aVmipsel
p821
aVmips64
p822
aVmips64el
p823
aVor1k
p824
aVpowerpc
p825
aVpowerpcspe
p826
aVppc64
p827
aVppc64el
p828
aVs390
p829
aVs390x
p830
aVsh4
p831
aVsparc
p832
aVsparc64
p833
aVx32
p834
ass(Vrelations
p835
g182
tp836
(dp837
Vheaders%gcc-4.9
p838
Vlinux-compiler-gcc-4.9-s390
p839
ss(Vbuild
p840
g76
tp841
(dp842
Vvdso
p843
I01
sVimage-file
p844
Varch/x86/boot/bzImage
p845
sVdebug-info
p846
I01
ss(g136
g108
g133
tp847
(dp848
g140
(lp849
Vpowerpc64le
p850
asg145
I01
ss(Vdescription
p851
g85
NVocteon
p852
tp853
(dp854
Vhardware
p855
VOcteon
p856
sVhardware-long
p857
VCavium Networks Octeon
p858
ss(Vimage
p859
g14
tp860
(dp861
Vsuggests
p862
Vfdutils
p863
sVinstall-stem
p864
Vvmlinuz
p865
sVconfigs
p866
(lp867
Vkernelarch-arm/config
p868
ass(Vimage
p869
g256
NVloongson-3
p870
tp871
(dp872
Vconfigs
p873
(lp874
Vkernelarch-mips/config.loongson-3
p875
ass(Vdescription
p876
g137
NVpowerpc-smp
p877
tp878
(dp879
Vhardware
p880
Vmultiprocessor 32-bit PowerPC
p881
ss(Vxen
p882
g76
g77
Vamd64
p883
tp884
(dp885
Vflavours
p886
(lp887
Vamd64
p888
ass(Vdescription
p889
g146
NVsh7751r
p890
tp891
(dp892
Vhardware
p893
Vsh7751r
p894
sVhardware-long
p895
VRenesas SH7751R R2D plus board
p896
ss(Vbase
p897
g146
tp898
(dp899
Vkernel-arch
p900
Vsh
p901
sg131
(lp902
g133
ass(Vimage
p903
g137
tp904
(dp905
Vsuggests
p906
Vmkvmlinuz
p907
sVinstall-stem
p908
Vvmlinux
p909
sVconfigs
p910
(lp911
ss(Vimage
p912
g85
tp913
(dp914
Vinstall-stem
p915
Vvmlinux
p916
ss(Vbuild
p917
g70
tp918
(dp919
Vvdso
p920
I01
sVimage-file
p921
Varch/x86/boot/bzImage
p922
ss(Vdescription
p923
g108
NVpowerpc64le
p924
tp925
(dp926
Vhardware
p927
VLittle-endian 64-bit PowerPC
p928
ss(Vimage
p929
g182
NVs390x
p930
tp931
(dp932
Vconfigs
p933
(lp934
Vkernelarch-s390/config-arch-64
p935
ass(g136
g226
g133
tp936
(dp937
g140
(lp938
Vpowerpcspe
p939
asg145
I01
ss(Vimage
p940
g108
tp941
(dp942
Vsuggests
p943
Vmkvmlinuz
p944
sVinstall-stem
p945
Vvmlinux
p946
sVconfigs
p947
(lp948
ss(Vbase
p949
g194
tp950
(dp951
Vkernel-arch
p952
Vmips
p953
sg131
(lp954
g133
ass(Vpackages
p955
tp956
(dp957
Vlibc-dev
p958
I00
ss(Vdescription
p959
g226
tp960
(dp961
Vhardware
p962
V32-bit PowerPC with SPE (instead of AltiVec) with SMP support
p963
ss(Vbase
p964
g182
tp965
(dp966
Vkernel-arch
p967
Vs390
p968
sg131
(lp969
g133
ass(Vimage
p970
g32
NVsparc64
p971
tp972
(dp973
Vconfigs
p974
(lp975
Vkernelarch-sparc/config-up
p976
ass(Vdescription
p977
Ng439
tp978
(dp979
Vparts
p980
(lp981
Vrt
p982
asVpart-short-rt
p983
VPREEMPT_RT
p984
sVpart-long-rt
p985
VThis kernel includes the PREEMPT_RT realtime patch set.
p986
ss(Vbase
p987
g23
tp988
(dp989
Vkernel-arch
p990
Vmips
p991
sg131
(lp992
g133
ass(Vbase
p993
g32
tp994
(dp995
Vkernel-arch
p996
Vsparc
p997
sg131
(lp998
g133
ass(Vdescription
p999
g174
NValpha-generic
p1000
tp1001
(dp1002
Vhardware
p1003
VAlpha
p1004
sVhardware-long
p1005
VDEC Alpha systems with extended kernel start address (Wildfire, Titan, Marvel)
p1006
ss(g136
g194
g133
tp1007
(dp1008
g140
(lp1009
V5kc-malta
p1010
aVocteon
p1011
asg145
I01
ss(Vimage
p1012
g85
NVocteon
p1013
tp1014
(dp1015
Vconfigs
p1016
(lp1017
Vkernelarch-mips/config.octeon
p1018
ass(Vbase
p1019
g200
tp1020
(dp1021
Vkernel-arch
p1022
Vparisc
p1023
sg131
(lp1024
g133
ass(Vdescription
p1025
g146
NVsh7785lcr
p1026
tp1027
(dp1028
Vhardware
p1029
Vsh7785lcr
p1030
sVhardware-long
p1031
VRenesas SH7785 reference board
p1032
ss(Vdescription
p1033
g70
NV686-pae
p1034
tp1035
(dp1036
Vparts
p1037
(lp1038
Vpae
p1039
asVhardware
p1040
Vmodern PCs
p1041
sVhardware-long
p1042
VPCs with one or more processors supporting PAE
p1043
ss(Vbuild
p1044
g226
tp1045
(dp1046
Vvdso
p1047
I01
sVimage-file
p1048
Vvmlinux
p1049
ss(Vdescription
p1050
g61
NVarm64
p1051
tp1052
(dp1053
Vhardware
p1054
V64-bit ARMv8 machines
p1055
ss(Vdescription
p1056
g194
NVocteon
p1057
tp1058
(dp1059
Vhardware
p1060
VOcteon
p1061
sVhardware-long
p1062
VCavium Networks Octeon
p1063
ss(Vimage
p1064
g23
tp1065
(dp1066
Vinstall-stem
p1067
Vvmlinux
p1068
ss(Vbase
p1069
g5
tp1070
(dp1071
Vkernel-arch
p1072
Vpowerpc
p1073
sg131
(lp1074
g133
ass(Vbase
p1075
NVrt
p1076
tp1077
(dp1078
Venabled
p1079
I01
ss(g136
g14
g133
tp1080
(dp1081
g140
(lp1082
Vrpi
p1083
aVrpi2
p1084
asg145
I01
ss(Vdescription
p1085
g137
NVpowerpc64
p1086
tp1087
(dp1088
Vhardware
p1089
V64-bit PowerPC
p1090
ss(Vimage
p1091
g70
NV686
p1092
tp1093
(dp1094
Vrecommends
p1095
Vlibc6-i686
p1096
sVconfigs
p1097
(lp1098
Vkernelarch-x86/config-arch-32
p1099
aVi386/config.686
p1100
ass(Vimage
p1101
g14
NVarmmp-lpae
p1102
tp1103
(dp1104
Vconfigs
p1105
(lp1106
Varmhf/config.armmp
p1107
aVarmhf/config.lpae
p1108
ass(Vbase
p1109
g115
tp1110
(dp1111
Vkernel-arch
p1112
Varm
p1113
sg131
(lp1114
g133
ass(Vrelations
p1115
g76
tp1116
(dp1117
Vheaders%gcc-5
p1118
Vlinux-compiler-gcc-5-x86
p1119
ss(Vdescription
p1120
g23
NV5kc-malta
p1121
tp1122
(dp1123
Vhardware
p1124
VMIPS Malta (64-bit)
p1125
sVhardware-long
p1126
VMIPS Malta boards (64-bit)
p1127
ss(Vimage
p1128
g256
tp1129
(dp1130
Vinstall-stem
p1131
Vvmlinux
p1132
ss(Vimage
p1133
g85
NVloongson-3
p1134
tp1135
(dp1136
Vconfigs
p1137
(lp1138
Vkernelarch-mips/config.loongson-3
p1139
ass(Vdescription
p1140
g256
NVloongson-2e
p1141
tp1142
(dp1143
Vhardware
p1144
VLoongson 2E
p1145
sVhardware-long
p1146
VLemote Loongson 2E systems
p1147
ss(Vimage
p1148
g256
NVloongson-2e
p1149
tp1150
(dp1151
Vconfigs
p1152
(lp1153
Vkernelarch-mips/config.loongson-2e
p1154
ass(Vdescription
p1155
g32
NVsparc64-smp
p1156
tp1157
(dp1158
Vhardware
p1159
Vmultiprocessor 64-bit UltraSPARC
p1160
ss(Vdescription
p1161
g124
NVm68k
p1162
tp1163
(dp1164
Vhardware
p1165
VMotorola MC68020+ family
p1166
ss(Vbuild
p1167
g256
tp1168
(dp1169
Vimage-file
p1170
Vvmlinux
p1171
ss(Vimage
p1172
tp1173
(dp1174
Vinitramfs-generators
p1175
(lp1176
Vinitramfs-tools
p1177
aVinitramfs-fallback
p1178
ass(Vversion
p1179
tp1180
(dp1181
Vupstream
p1182
V4.4
p1183
sVabiname_base
p1184
V4.4.0
p1185
sVabiname
p1186
V4.4.0-1
p1187
sVsource
p1188
V4.4.6-1+rpi6
p1189
ss(Vdescription
p1190
g182
NVs390x
p1191
tp1192
(dp1193
Vhardware
p1194
VIBM zSeries
p1195
ss(Vimage
p1196
g124
tp1197
(dp1198
Vsuggests
p1199
Vvmelilo, fdutils
p1200
sVinstall-stem
p1201
Vvmlinuz
p1202
ss(Vdescription
p1203
g76
NVamd64
p1204
tp1205
(dp1206
Vhardware
p1207
V64-bit PCs
p1208
sVhardware-long
p1209
VPCs with AMD64, Intel 64 or VIA Nano processors
p1210
ss(Vbuild
p1211
g182
NVs390x
p1212
tp1213
(dp1214
Vdebug-info
p1215
I01
ss(Vimage
p1216
g115
tp1217
(dp1218
Vsuggests
p1219
Vfdutils
p1220
sVinstall-stem
p1221
Vvmlinuz
p1222
sVconfigs
p1223
(lp1224
Vkernelarch-arm/config
p1225
aVarmel/config
p1226
ass(Vimage
p1227
g256
NV4kc-malta
p1228
tp1229
(dp1230
Vconfigs
p1231
(lp1232
Vkernelarch-mips/config.4kc-malta
p1233
ass(Vbuild
p1234
g124
tp1235
(dp1236
Vimage-file
p1237
Vvmlinux.gz
p1238
ss(Vdescription
p1239
g256
NV5kc-malta
p1240
tp1241
(dp1242
Vhardware
p1243
VMIPS Malta (64-bit)
p1244
sVhardware-long
p1245
VMIPS Malta boards (64-bit)
p1246
ss(Vimage
p1247
g194
NV5kc-malta
p1248
tp1249
(dp1250
Vconfigs
p1251
(lp1252
Vkernelarch-mips/config.5kc-malta
p1253
ass(Vimage
p1254
g14
NVrpi2
p1255
tp1256
(dp1257
Vconfigs
p1258
(lp1259
Varmhf/config.rpix
p1260
aVarmhf/config.rpi2
p1261
ass(Vbase
p1262
g174
tp1263
(dp1264
Vkernel-arch
p1265
Valpha
p1266
sg131
(lp1267
g133
ass(g136
g85
g133
tp1268
(dp1269
g140
(lp1270
V5kc-malta
p1271
aVloongson-3
p1272
aVocteon
p1273
asg145
I01
ss(Vrelations
p1274
tp1275
(dp1276
Vinitramfs-fallback
p1277
Vlinux-initramfs-tool
p1278
sVgcc-4.8
p1279
Vgcc-4.8 <!stage1>
p1280
sVgcc-4.9
p1281
Vgcc-4.9 <!stage1>
p1282
sVinitramfs-tools
p1283
Vinitramfs-tools (>= 0.110~)
p1284
sVgcc-5
p1285
Vgcc-5 <!stage1>
p1286
ss(Vbase
p1287
Vs390
p1288
tp1289
(dp1290
Vkernel-arch
p1291
Vs390
p1292
sVfeaturesets
p1293
(lp1294
sstp1295
Rp1296
.