ccopy_reg
_reconstructor
p0
(cdebian_linux.config
ConfigCore
p1
c__builtin__
dict
p2
(dp3
(Vabi
p4
NVrt
p5
tp6
(dp7
Vignore-changes
p8
(lp9
V*
p10
ass(Vdescription
p11
Vs390x
p12
NVs390x
p13
tp14
(dp15
Vhardware
p16
VIBM zSeries
p17
ss(Vimage
p18
Vmipsel
p19
NVloongson-2f
p20
tp21
(dp22
Vrecommends
p23
Vlibc6-loongson2f
p24
sVconfigs
p25
(lp26
Vkernelarch-mips/config.loongson-2f
p27
ass(Vbase
p28
Vamd64
p29
Vnone
p30
tp31
(dp32
Vflavours
p33
(lp34
Vamd64
p35
ass(Vdescription
p36
Vmips64el
p37
NVocteon
p38
tp39
(dp40
Vhardware-long
p41
VCavium Networks Octeon
p42
sVhardware
p43
VOcteon
p44
ss(Vbuild
p45
g29
tp46
(dp47
Vvdso
p48
I01
sVdebug-info
p49
I01
sVimage-file
p50
Varch/x86/boot/bzImage
p51
ss(Vimage
p52
Vsh4
p53
NVsh7785lcr
p54
tp55
(dp56
Vrecommends
p57
Vu-boot-tools
p58
sVcheck-size
p59
L4194304L
ss(Vbase
p60
g29
tp61
(dp62
Vkernel-arch
p63
Vx86
p64
sVfeaturesets
p65
(lp66
Vnone
p67
aVrt
p68
asVcompiler
p69
Vgcc-5
p70
ss(Vdescription
p71
Vsparc64
p72
NVsparc64
p73
tp74
(dp75
Vhardware
p76
Vuniprocessor 64-bit UltraSPARC
p77
ss(Vdescription
p78
g19
NVloongson-2f
p79
tp80
(dp81
Vhardware-long
p82
VLemote Loongson 2F systems
p83
sVhardware
p84
VLoongson 2F
p85
ss(Vxen
p86
g29
g30
Vamd64
p87
tp88
(dp89
Vflavours
p90
(lp91
Vamd64
p92
ass(Vdescription
p93
Vppc64el
p94
NVpowerpc64le
p95
tp96
(dp97
Vhardware
p98
VLittle-endian 64-bit PowerPC
p99
ss(Vdescription
p100
Vmips
p101
NV5kc-malta
p102
tp103
(dp104
Vhardware-long
p105
VMIPS Malta boards (64-bit)
p106
sVhardware
p107
VMIPS Malta (64-bit)
p108
ss(Vimage
p109
g19
NV5kc-malta
p110
tp111
(dp112
Vconfigs
p113
(lp114
Vkernelarch-mips/config.5kc-malta
p115
ass(Vdescription
p116
Ng5
tp117
(dp118
Vpart-short-rt
p119
VPREEMPT_RT
p120
sVpart-long-rt
p121
VThis kernel includes the PREEMPT_RT realtime patch set.
p122
sVparts
p123
(lp124
Vrt
p125
ass(Vimage
p126
g19
NV4kc-malta
p127
tp128
(dp129
Vconfigs
p130
(lp131
Vkernelarch-mips/config.4kc-malta
p132
ass(Vdescription
p133
Vppc64
p134
NVpowerpc64
p135
tp136
(dp137
Vhardware
p138
V64-bit PowerPC
p139
ss(Vdescription
p140
Vpowerpc
p141
NVpowerpc
p142
tp143
(dp144
Vhardware
p145
Vuniprocessor 32-bit PowerPC
p146
ss(Vimage
p147
Varm64
p148
tp149
(dp150
Vinstall-stem
p151
Vvmlinuz
p152
ss(Vimage
p153
g141
tp154
(dp155
Vinstall-stem
p156
Vvmlinux
p157
sVsuggests
p158
Vmkvmlinuz
p159
sVconfigs
p160
(lp161
ss(Vimage
p162
Vi386
p163
tp164
(dp165
Vconfigs
p166
(lp167
sVbreaks
p168
Vxserver-xorg-input-vmmouse (<< 1:13.0.99)
p169
sVinstall-stem
p170
Vvmlinuz
p171
sVbootloaders
p172
(lp173
Vgrub-pc
p174
aVextlinux
p175
ass(Vabi
p176
g12
tp177
(dp178
Vignore-changes
p179
(lp180
Vmodule:arch/s390/kvm/kvm
p181
ass(Vdescription
p182
g19
NV4kc-malta
p183
tp184
(dp185
Vhardware-long
p186
VMIPS Malta boards
p187
sVhardware
p188
VMIPS Malta
p189
ss(Vdescription
p190
Vpowerpcspe
p191
tp192
(dp193
Vhardware
p194
V32-bit PowerPC with SPE (instead of AltiVec) with SMP support
p195
ss(Vimage
p196
g37
tp197
(dp198
Vinstall-stem
p199
Vvmlinux
p200
ss(Vdescription
p201
Varmhf
p202
NVarmmp-lpae
p203
tp204
(dp205
Vhardware-long
p206
VARMv7 multiplatform kernel supporting LPAE. See\u000ahttps://wiki.debian.org/DebianKernel/ARMMP for details of supported\u000aplatforms.
p207
sVhardware
p208
VARMv7 multiplatform compatible SoCs supporting LPAE
p209
ss(Vbuild
p210
g134
tp211
(dp212
Vvdso
p213
I01
sVimage-file
p214
Vvmlinux
p215
ss(Vimage
p216
g141
NVpowerpc64
p217
tp218
(dp219
Vconfigs
p220
(lp221
Vkernelarch-powerpc/config-arch-64
p222
aVkernelarch-powerpc/config-arch-64-be
p223
ass(Vbase
p224
g101
tp225
(dp226
Vkernel-arch
p227
Vmips
p228
sVfeaturesets
p229
(lp230
Vnone
p231
ass(Vimage
p232
g19
NVloongson-2e
p233
tp234
(dp235
Vconfigs
p236
(lp237
Vkernelarch-mips/config.loongson-2e
p238
ass(Vimage
p239
g163
NV686-pae
p240
tp241
(dp242
Vrecommends
p243
Vlibc6-i686
p244
sVconfigs
p245
(lp246
Vkernelarch-x86/config-arch-32
p247
aVi386/config.686-pae
p248
ass(Vbase
p249
Vx32
p250
tp251
(dp252
Vkernel-arch
p253
Vx86
p254
sVfeaturesets
p255
(lp256
ss(Vrelations
p257
Varmel
p258
tp259
(dp260
Vheaders%gcc-4.9
p261
Vlinux-compiler-gcc-4.9-arm
p262
ss(Vbase
p263
NVrt
p264
tp265
(dp266
Venabled
p267
I01
ss(Vbuild
p268
g94
tp269
(dp270
Vvdso
p271
I01
sVimage-file
p272
Vvmlinux
p273
ss(Vbase
p274
g53
g231
tp275
(dp276
Vimplicit-flavour
p277
I01
sVflavours
p278
(lp279
Vsh7751r
p280
aVsh7785lcr
p281
ass(Vpackages
p282
tp283
(dp284
Vlibc-dev
p285
I00
ss(Vbuild
p286
Vhppa
p287
tp288
(dp289
Vimage-file
p290
Vvmlinux
p291
ss(Vimage
p292
g101
NV4kc-malta
p293
tp294
(dp295
Vconfigs
p296
(lp297
Vkernelarch-mips/config.4kc-malta
p298
ass(Vimage
p299
Vmips64
p300
NV5kc-malta
p301
tp302
(dp303
Vconfigs
p304
(lp305
Vkernelarch-mips/config.5kc-malta
p306
ass(Vimage
p307
g202
NVrpi
p308
tp309
(dp310
Vconfigs
p311
(lp312
Varmhf/config.rpix
p313
aVarmhf/config.rpi
p314
ass(Vdescription
p315
g19
NV5kc-malta
p316
tp317
(dp318
Vhardware-long
p319
VMIPS Malta boards (64-bit)
p320
sVhardware
p321
VMIPS Malta (64-bit)
p322
ss(Vbase
p323
g141
tp324
(dp325
Vkernel-arch
p326
Vpowerpc
p327
sg229
(lp328
g231
ass(Vbuild
p329
Vm68k
p330
tp331
(dp332
Vimage-file
p333
Vvmlinux.gz
p334
ss(Vimage
p335
g101
NVocteon
p336
tp337
(dp338
Vconfigs
p339
(lp340
Vkernelarch-mips/config.octeon
p341
ass(Vbuild
p342
g12
tp343
(dp344
Vvdso
p345
I01
sVimage-file
p346
Varch/s390/boot/image
p347
ss(g274
g300
g231
tp348
(dp349
g277
I01
sg278
(lp350
V5kc-malta
p351
aVocteon
p352
ass(Vdescription
p353
g163
NV686-pae
p354
tp355
(dp356
Vhardware-long
p357
VPCs with one or more processors supporting PAE
p358
sVparts
p359
(lp360
Vpae
p361
asVhardware
p362
Vmodern PCs
p363
ss(Vdescription
p364
g141
NVpowerpc64
p365
tp366
(dp367
Vhardware
p368
V64-bit PowerPC
p369
ss(Vdescription
p370
g141
NVpowerpc-smp
p371
tp372
(dp373
Vhardware
p374
Vmultiprocessor 32-bit PowerPC
p375
ss(Vimage
p376
g300
NVocteon
p377
tp378
(dp379
Vconfigs
p380
(lp381
Vkernelarch-mips/config.octeon
p382
ass(Vdescription
p383
g300
NV5kc-malta
p384
tp385
(dp386
Vhardware-long
p387
VMIPS Malta boards
p388
sVhardware
p389
VMIPS Malta
p390
ss(Vversion
p391
tp392
(dp393
Vabiname_base
p394
V4.4.0
p395
sVsource
p396
V4.4.6-1+rpi2
p397
sVupstream
p398
V4.4
p399
sVabiname
p400
V4.4.0-1
p401
ss(Vbase
p402
g191
tp403
(dp404
Vkernel-arch
p405
Vpowerpc
p406
sg229
(lp407
g231
ass(Vimage
p408
g163
NV686
p409
tp410
(dp411
Vrecommends
p412
Vlibc6-i686
p413
sVconfigs
p414
(lp415
Vkernelarch-x86/config-arch-32
p416
aVi386/config.686
p417
ass(Vimage
p418
g53
tp419
(dp420
Vinstall-stem
p421
Vvmlinuz
p422
sVsuggests
p423
Vfdutils
p424
ss(Vdescription
p425
g287
NVparisc
p426
tp427
(dp428
Vhardware-long
p429
VHP PA-RISC 32-bit systems with max 4 GB RAM
p430
sVhardware
p431
V32-bit PA-RISC
p432
ss(Vbuild
p433
g37
tp434
(dp435
Vimage-file
p436
Vvmlinux
p437
ss(Vdescription
p438
g330
NVm68k
p439
tp440
(dp441
Vhardware
p442
VMotorola MC68020+ family
p443
ss(g274
g287
g231
tp444
(dp445
g277
I01
sg278
(lp446
Vparisc
p447
aVparisc64-smp
p448
ass(Vdescription
p449
g202
NVrpi
p450
tp451
(dp452
Vhardware-long
p453
VRaspberry PI
p454
sVhardware
p455
VRaspberryPI
p456
ss(Vdescription
p457
g258
NVmarvell
p458
tp459
(dp460
Vhardware-long
p461
VMarvell Kirkwood based systems (SheevaPlug, QNAP TS-119/TS-219, etc)\u000aand Orion 5181, 5182 and 5281 based systems (QNAP TS-109/TS-209, etc)
p462
sVhardware
p463
VMarvell Kirkwood/Orion
p464
ss(g274
g19
g231
tp465
(dp466
g277
I01
sg278
(lp467
V4kc-malta
p468
aV5kc-malta
p469
aVloongson-2e
p470
aVloongson-2f
p471
aVloongson-3
p472
ass(Vdescription
p473
Valpha
p474
NValpha-smp
p475
tp476
(dp477
Vhardware-long
p478
VDEC Alpha SMP systems with extended kernel start address (Wildfire, Titan, Marvel)
p479
sVhardware
p480
VAlpha SMP
p481
ss(Vbuild
p482
g53
tp483
(dp484
Vimage-file
p485
Varch/sh/boot/zImage
p486
ss(Vbase
p487
g134
tp488
(dp489
Vkernel-arch
p490
Vpowerpc
p491
sg229
(lp492
g231
ass(Vimage
p493
g72
NVsparc64
p494
tp495
(dp496
Vconfigs
p497
(lp498
Vkernelarch-sparc/config-up
p499
ass(Vdescription
p500
g148
NVarm64
p501
tp502
(dp503
Vhardware
p504
V64-bit ARMv8 machines
p505
ss(Vdescription
p506
g101
NV4kc-malta
p507
tp508
(dp509
Vhardware-long
p510
VMIPS Malta boards
p511
sVhardware
p512
VMIPS Malta
p513
ss(Vimage
p514
g12
NVs390x
p515
tp516
(dp517
Vconfigs
p518
(lp519
Vkernelarch-s390/config-arch-64
p520
ass(Vimage
p521
g94
NVpowerpc64le
p522
tp523
(dp524
Vconfigs
p525
(lp526
Vkernelarch-powerpc/config-arch-64
p527
aVkernelarch-powerpc/config-arch-64-le
p528
ass(Vbase
p529
g287
NVparisc64-smp
p530
tp531
(dp532
Vcflags
p533
V-fno-cse-follow-jumps
p534
sVoverride-host-type
p535
Vhppa64-linux-gnu
p536
ss(Vdescription
p537
g72
NVsparc64-smp
p538
tp539
(dp540
Vhardware
p541
Vmultiprocessor 64-bit UltraSPARC
p542
ss(Vimage
p543
g29
tp544
(dp545
Vconfigs
p546
(lp547
sVbreaks
p548
Vxserver-xorg-input-vmmouse (<< 1:13.0.99)
p549
sVinstall-stem
p550
Vvmlinuz
p551
sVbootloaders
p552
(lp553
Vgrub-pc
p554
aVgrub-efi
p555
aVextlinux
p556
ass(Vimage
p557
g101
tp558
(dp559
Vinstall-stem
p560
Vvmlinux
p561
ss(Vrelations
p562
g287
tp563
(dp564
Vgcc-4.9
p565
Vgcc-4.9 <!stage1>, binutils-hppa64 <!stage1>, gcc-4.9-hppa64 <!stage1>
p566
ss(Vimage
p567
g202
tp568
(dp569
Vinstall-stem
p570
Vvmlinuz
p571
sVsuggests
p572
Vfdutils
p573
sVconfigs
p574
(lp575
Vkernelarch-arm/config
p576
ass(Vrelations
p577
tp578
(dp579
Vgcc-4.8
p580
Vgcc-4.8 <!stage1>
p581
sVinitramfs-fallback
p582
Vlinux-initramfs-tool
p583
sVgcc-5
p584
Vgcc-5 <!stage1>
p585
sVinitramfs-tools
p586
Vinitramfs-tools (>= 0.110~)
p587
sVgcc-4.9
p588
Vgcc-4.9 <!stage1>
p589
ss(g274
g191
g231
tp590
(dp591
g277
I01
sg278
(lp592
Vpowerpcspe
p593
ass(Vimage
p594
g287
tp595
(dp596
Vinstall-stem
p597
Vvmlinux
p598
sVsuggests
p599
Vpalo
p600
ss(Vimage
p601
g72
NVsparc64-smp
p602
tp603
(dp604
Vconfigs
p605
(lp606
Vkernelarch-sparc/config-smp
p607
ass(Vbase
p608
g148
tp609
(dp610
Vkernel-arch
p611
Varm64
p612
sVfeaturesets
p613
(lp614
Vnone
p615
ass(Vdescription
p616
g37
NVloongson-3
p617
tp618
(dp619
Vhardware-long
p620
VLoongson 3A or 3B based systems (e.g. from Loongson or Lemote)
p621
sVhardware
p622
VLoongson 3A/3B
p623
ss(Vdescription
p624
g258
NVversatile
p625
tp626
(dp627
Vhardware-long
p628
VVersatile systems (PB, AB, Qemu)
p629
sVhardware
p630
VVersatile
p631
ss(Vbuild
p632
g300
tp633
(dp634
Vimage-file
p635
Vvmlinux
p636
ss(Vbase
p637
g72
tp638
(dp639
Vkernel-arch
p640
Vsparc
p641
sg229
(lp642
g231
ass(g274
g94
g231
tp643
(dp644
g277
I01
sg278
(lp645
Vpowerpc64le
p646
ass(Vdescription
p647
g474
NValpha-generic
p648
tp649
(dp650
Vhardware-long
p651
VDEC Alpha systems with extended kernel start address (Wildfire, Titan, Marvel)
p652
sVhardware
p653
VAlpha
p654
ss(Vimage
p655
g19
tp656
(dp657
Vinstall-stem
p658
Vvmlinux
p659
ss(Vdescription
p660
g29
g30
Vamd64
p661
tp662
(dp663
Vparts
p664
(lp665
Vxen
p666
ass(Vrelations
p667
g12
tp668
(dp669
Vheaders%gcc-4.9
p670
Vlinux-compiler-gcc-4.9-s390
p671
ss(Vimage
p672
g258
NVmarvell
p673
tp674
(dp675
Vbreaks
p676
Vflash-kernel (<< 3.57~)
p677
sVrecommends
p678
Vu-boot-tools
p679
sVcheck-size-with-dtb
p680
I01
sVcheck-size
p681
L2097080L
ss(Vbase
p682
Vs390
p683
tp684
(dp685
Vkernel-arch
p686
Vs390
p687
sVfeaturesets
p688
(lp689
ss(g274
g202
g231
tp690
(dp691
g277
I01
sg278
(lp692
Vrpi
p693
aVrpi2
p694
ass(Vbuild
p695
g163
tp696
(dp697
Vvdso
p698
I01
sVimage-file
p699
Varch/x86/boot/bzImage
p700
ss(Vbase
p701
g148
Vnone
p702
tp703
(dp704
Vflavours
p705
(lp706
Varm64
p707
ass(Vbuild
p708
g474
tp709
(dp710
Vimage-file
p711
Varch/alpha/boot/vmlinux.gz
p712
ss(Vdescription
p713
g287
NVparisc64-smp
p714
tp715
(dp716
Vhardware-long
p717
VHP PA-RISC 64-bit SMP systems with support for more than 4 GB RAM
p718
sVhardware
p719
Vmultiprocessor 64-bit PA-RISC
p720
ss(Vimage
p721
g29
NVamd64
p722
tp723
(dp724
Vconfigs
p725
(lp726
Vkernelarch-x86/config-arch-64
p727
ass(Vbase
p728
g474
tp729
(dp730
Vkernel-arch
p731
Valpha
p732
sg229
(lp733
g231
ass(Vdescription
p734
g19
NVloongson-3
p735
tp736
(dp737
Vhardware-long
p738
VLoongson 3A or 3B based systems (e.g. from Loongson or Lemote)
p739
sVhardware
p740
VLoongson 3A/3B
p741
ss(Vimage
p742
g94
tp743
(dp744
Vinstall-stem
p745
Vvmlinux
p746
sVsuggests
p747
Vmkvmlinuz
p748
sVconfigs
p749
(lp750
ss(Vbuild
p751
g258
tp752
(dp753
Vimage-file
p754
Varch/arm/boot/zImage
p755
ss(Vimage
p756
g37
NVocteon
p757
tp758
(dp759
Vconfigs
p760
(lp761
Vkernelarch-mips/config.octeon
p762
ass(g274
g141
g231
tp763
(dp764
g277
I01
sg278
(lp765
Vpowerpc
p766
aVpowerpc-smp
p767
aVpowerpc64
p768
ass(Vimage
p769
g19
NVloongson-3
p770
tp771
(dp772
Vconfigs
p773
(lp774
Vkernelarch-mips/config.loongson-3
p775
ass(Vbase
p776
g29
Vrt
p777
tp778
(dp779
Vflavours
p780
(lp781
Vamd64
p782
ass(Vbase
p783
g37
tp784
(dp785
Vkernel-arch
p786
Vmips
p787
sg229
(lp788
g231
ass(Vdescription
p789
g300
NVocteon
p790
tp791
(dp792
Vhardware-long
p793
VCavium Networks Octeon
p794
sVhardware
p795
VOcteon
p796
ss(g274
g474
g231
tp797
(dp798
g277
I01
sg278
(lp799
Valpha-generic
p800
aValpha-smp
p801
ass(Vrelations
p802
g202
tp803
(dp804
Vheaders%gcc-4.9
p805
Vlinux-compiler-gcc-4.9-arm
p806
ss(Vimage
p807
g37
NVloongson-3
p808
tp809
(dp810
Vconfigs
p811
(lp812
Vkernelarch-mips/config.loongson-3
p813
ass(Vdescription
p814
g53
NVsh7785lcr
p815
tp816
(dp817
Vhardware-long
p818
VRenesas SH7785 reference board
p819
sVhardware
p820
Vsh7785lcr
p821
ss(Vdescription
p822
g202
NVrpi2
p823
tp824
(dp825
Vhardware-long
p826
VRaspberry PI 2
p827
sVhardware
p828
VRaspberryPI2
p829
ss(Vimage
p830
g202
NVarmmp-lpae
p831
tp832
(dp833
Vconfigs
p834
(lp835
Varmhf/config.armmp
p836
aVarmhf/config.lpae
p837
ass(Vdescription
p838
g202
NVarmmp
p839
tp840
(dp841
Vhardware-long
p842
VARMv7 multiplatform kernel. See\u000ahttps://wiki.debian.org/DebianKernel/ARMMP for details of supported\u000aplatforms
p843
sVhardware
p844
VARMv7 multiplatform compatible SoCs
p845
ss(g274
g134
g231
tp846
(dp847
g277
I01
sg278
(lp848
Vpowerpc64
p849
ass(Vimage
p850
g148
NVarm64
p851
tp852
(dp853
s(g274
g258
g231
tp854
(dp855
g277
I01
sg278
(lp856
Vmarvell
p857
aVversatile
p858
ass(Vbuild
p859
g202
tp860
(dp861
Vvdso
p862
I01
sVimage-file
p863
Varch/arm/boot/zImage
p864
ss(Vbuild
p865
g101
tp866
(dp867
Vimage-file
p868
Vvmlinux
p869
ss(Vbuild
p870
g72
tp871
(dp872
Vimage-file
p873
Varch/sparc/boot/zImage
p874
ss(Vbase
p875
g287
tp876
(dp877
Vkernel-arch
p878
Vparisc
p879
sg229
(lp880
g231
ass(Vimage
p881
g258
tp882
(dp883
Vinstall-stem
p884
Vvmlinuz
p885
sVsuggests
p886
Vfdutils
p887
sVconfigs
p888
(lp889
Vkernelarch-arm/config
p890
aVarmel/config
p891
ass(Vbuild
p892
g202
NVrpi
p893
tp894
(dp895
Vimage-file
p896
Varch/arm/boot/zImagerpdt
p897
ss(Vbase
p898
g300
tp899
(dp900
Vkernel-arch
p901
Vmips
p902
sg229
(lp903
g231
ass(Vbuild
p904
g202
NVrpi2
p905
tp906
(dp907
Vimage-file
p908
Varch/arm/boot/zImagerpdt
p909
ss(Vimage
p910
g141
NVpowerpc-smp
p911
tp912
(dp913
Vconfigs
p914
(lp915
Vpowerpc/config.powerpc
p916
aVpowerpc/config.powerpc-smp
p917
ass(Vimage
p918
g134
tp919
(dp920
Vinstall-stem
p921
Vvmlinux
p922
sVsuggests
p923
Vmkvmlinuz
p924
sVconfigs
p925
(lp926
ss(Vbuild
p927
g148
tp928
(dp929
Vvdso
p930
I01
sVdebug-info
p931
I01
sVimage-file
p932
Varch/arm64/boot/Image
p933
ss(Vbuild
p934
g163
NV686-pae
p935
tp936
(dp937
Vdebug-info
p938
I01
ss(Vrelations
p939
g163
tp940
(dp941
Vheaders%gcc-5
p942
Vlinux-compiler-gcc-5-x86
p943
ss(g274
g12
g231
tp944
(dp945
g277
I01
sg278
(lp946
Vs390x
p947
ass(Vbase
p948
g163
tp949
(dp950
Vkernel-arch
p951
Vx86
p952
sVfeaturesets
p953
(lp954
Vnone
p955
aVrt
p956
asVcompiler
p957
Vgcc-5
p958
ss(g274
g330
g231
tp959
(dp960
g277
I01
sg278
(lp961
Vm68k
p962
ass(Vbase
p963
g12
tp964
(dp965
Vkernel-arch
p966
Vs390
p967
sg229
(lp968
g231
ass(Vbase
p969
g258
tp970
(dp971
Vkernel-arch
p972
Varm
p973
sg229
(lp974
g231
ass(Vbase
p975
g19
tp976
(dp977
Vkernel-arch
p978
Vmips
p979
sg229
(lp980
g231
ass(g274
g72
g231
tp981
(dp982
g277
I01
sg278
(lp983
Vsparc64
p984
aVsparc64-smp
p985
ass(Vimage
p986
g191
tp987
(dp988
Vinstall-stem
p989
Vvmlinux
p990
sVsuggests
p991
Vmkvmlinuz
p992
ss(Vimage
p993
g202
NVrpi2
p994
tp995
(dp996
Vconfigs
p997
(lp998
Varmhf/config.rpix
p999
aVarmhf/config.rpi2
p1000
ass(Vimage
p1001
g134
NVpowerpc64
p1002
tp1003
(dp1004
Vconfigs
p1005
(lp1006
Vkernelarch-powerpc/config-arch-64
p1007
aVkernelarch-powerpc/config-arch-64-be
p1008
ass(Vdescription
p1009
tp1010
(dp1011
Vpart-long-xen
p1012
VThis kernel also runs on a Xen hypervisor.\u000aIt supports both privileged (dom0) and unprivileged (domU) operation.
p1013
sVpart-long-up
p1014
VThis kernel is not suitable for SMP (multi-processor,\u000amulti-core or hyper-threaded) systems.
p1015
ss(Vdescription
p1016
g101
NVocteon
p1017
tp1018
(dp1019
Vhardware-long
p1020
VCavium Networks Octeon
p1021
sVhardware
p1022
VOcteon
p1023
ss(Vdescription
p1024
g53
NVsh7751r
p1025
tp1026
(dp1027
Vhardware-long
p1028
VRenesas SH7751R R2D plus board
p1029
sVhardware
p1030
Vsh7751r
p1031
ss(Vimage
p1032
g300
tp1033
(dp1034
Vinstall-stem
p1035
Vvmlinux
p1036
ss(Vdescription
p1037
g19
NVloongson-2e
p1038
tp1039
(dp1040
Vhardware-long
p1041
VLemote Loongson 2E systems
p1042
sVhardware
p1043
VLoongson 2E
p1044
ss(Vbase
p1045
tp1046
(dp1047
Varches
p1048
(lp1049
Valpha
p1050
aVamd64
p1051
aVarm64
p1052
aVarmel
p1053
aVarmhf
p1054
aVhppa
p1055
aVi386
p1056
aVm68k
p1057
aVmips
p1058
aVmipsel
p1059
aVmips64
p1060
aVmips64el
p1061
aVor1k
p1062
aVpowerpc
p1063
aVpowerpcspe
p1064
aVppc64
p1065
aVppc64el
p1066
aVs390
p1067
aVs390x
p1068
aVsh4
p1069
aVsparc
p1070
aVsparc64
p1071
aVx32
p1072
asVfeaturesets
p1073
(lp1074
Vnone
p1075
aVrt
p1076
asVcompiler
p1077
Vgcc-4.9
p1078
ss(Vdescription
p1079
g163
tp1080
(dp1081
Vpart-long-pae
p1082
VThis kernel requires PAE (Physical Address Extension).\u000aThis feature is supported by the Intel Pentium Pro/II/III/4/4M/D, Xeon,\u000aCore and Atom; AMD Geode NX, Athlon (K7), Duron, Opteron, Sempron,\u000aTurion or Phenom; Transmeta Efficeon; VIA C7; and some other processors.
p1083
ss(Vbase
p1084
g53
tp1085
(dp1086
Vkernel-arch
p1087
Vsh
p1088
sg229
(lp1089
g231
ass(Vimage
p1090
g330
tp1091
(dp1092
Vinstall-stem
p1093
Vvmlinuz
p1094
sVsuggests
p1095
Vvmelilo, fdutils
p1096
ss(Vimage
p1097
g37
NV5kc-malta
p1098
tp1099
(dp1100
Vconfigs
p1101
(lp1102
Vkernelarch-mips/config.5kc-malta
p1103
ass(Vimage
p1104
g12
tp1105
(dp1106
Vconfigs
p1107
(lp1108
sVinstall-stem
p1109
Vvmlinuz
p1110
sVbootloaders
p1111
(lp1112
Vs390-tools
p1113
ass(Vbase
p1114
g163
Vnone
p1115
tp1116
(dp1117
Vflavours
p1118
(lp1119
V686
p1120
aV686-pae
p1121
ass(Vdescription
p1122
g163
g1115
V686-pae
p1123
tp1124
(dp1125
Vparts
p1126
(lp1127
Vxen
p1128
ass(Vbuild
p1129
g191
tp1130
(dp1131
Vvdso
p1132
I01
sVimage-file
p1133
Vvmlinux
p1134
ss(Vbase
p1135
g94
tp1136
(dp1137
Vkernel-arch
p1138
Vpowerpc
p1139
sg229
(lp1140
g231
ass(Vimage
p1141
g474
tp1142
(dp1143
Vinstall-stem
p1144
Vvmlinuz
p1145
sVsuggests
p1146
Vaboot, fdutils
p1147
ss(Vbase
p1148
g202
tp1149
(dp1150
Vkernel-arch
p1151
Varm
p1152
sg229
(lp1153
g231
ass(Vimage
p1154
tp1155
(dp1156
Vinitramfs-generators
p1157
(lp1158
Vinitramfs-tools
p1159
aVinitramfs-fallback
p1160
ass(Vdescription
p1161
g37
NV5kc-malta
p1162
tp1163
(dp1164
Vhardware-long
p1165
VMIPS Malta boards
p1166
sVhardware
p1167
VMIPS Malta
p1168
ss(g274
g101
g231
tp1169
(dp1170
g277
I01
sg278
(lp1171
V4kc-malta
p1172
aV5kc-malta
p1173
aVocteon
p1174
ass(Vbase
p1175
Vsparc
p1176
tp1177
(dp1178
Vkernel-arch
p1179
Vsparc
p1180
sVfeaturesets
p1181
(lp1182
ss(Vimage
p1183
g101
NV5kc-malta
p1184
tp1185
(dp1186
Vconfigs
p1187
(lp1188
Vkernelarch-mips/config.5kc-malta
p1189
ass(Vdescription
p1190
g29
NVamd64
p1191
tp1192
(dp1193
Vhardware-long
p1194
VPCs with AMD64, Intel 64 or VIA Nano processors
p1195
sVhardware
p1196
V64-bit PCs
p1197
ss(Vabi
p1198
g287
tp1199
(dp1200
Vignore-changes
p1201
(lp1202
Vdrm_dp_*
p1203
ass(Vrelations
p1204
g29
tp1205
(dp1206
Vheaders%gcc-5
p1207
Vlinux-compiler-gcc-5-x86
p1208
ss(Vimage
p1209
g72
tp1210
(dp1211
Vinstall-stem
p1212
Vvmlinuz
p1213
sVsuggests
p1214
Vsilo, fdutils
p1215
sVconfigs
p1216
(lp1217
ss(g274
g37
g231
tp1218
(dp1219
g277
I01
sg278
(lp1220
V5kc-malta
p1221
aVloongson-3
p1222
aVocteon
p1223
ass(Vbuild
p1224
g19
tp1225
(dp1226
Vimage-file
p1227
Vvmlinux
p1228
ss(Vdescription
p1229
g163
NV686
p1230
tp1231
(dp1232
Vhardware-long
p1233
VPCs with one or more processors not supporting PAE
p1234
sVhardware
p1235
Volder PCs
p1236
ss(Vbase
p1237
g330
tp1238
(dp1239
Vcflags
p1240
V-ffreestanding
p1241
sVkernel-arch
p1242
Vm68k
p1243
sg229
(lp1244
g231
asVcompiler
p1245
Vgcc-4.8
p1246
ss(Vbuild
p1247
g12
NVs390x
p1248
tp1249
(dp1250
Vdebug-info
p1251
I01
ss(Vbase
p1252
g163
Vrt
p1253
tp1254
(dp1255
Vflavours
p1256
(lp1257
V686-pae
p1258
ass(Vabi
p1259
tp1260
(dp1261
Vignore-changes
p1262
(lp1263
V__scm_destroy
p1264
aV__scm_send
p1265
aVscm_detach_fds
p1266
aVscm_fp_dup
p1267
aVefivar_validate
p1268
aVget_thermal_instance
p1269
aVinet_csk_reqsk_queue_add
p1270
aVtcp_req_err
p1271
aVmodule:drivers/gpu/drm/drm_kms_helper
p1272
aVmodule:drivers/hv/hv_vmbus
p1273
aVmodule:drivers/md/dm-snapshot
p1274
aVmodule:drivers/mmc/host/sdhci
p1275
aVmodule:drivers/mmc/host/sdhci*
p1276
aVmodule:net/ceph/libceph
p1277
asVabiname
p1278
V1
p1279
ss(Vbuild
p1280
g141
tp1281
(dp1282
Vvdso
p1283
I01
sVimage-file
p1284
Vvmlinux
p1285
ss(Vbase
p1286
Vor1k
p1287
tp1288
(dp1289
Vkernel-arch
p1290
Vopenrisc
p1291
sVfeaturesets
p1292
(lp1293
sstp1294
Rp1295
.